
C-SSE:     file format elf64-x86-64


Disassembly of section .init:

0000000000401470 <_init>:
  401470:	48 83 ec 08          	sub    $0x8,%rsp
  401474:	48 8b 05 8d bd 21 00 	mov    0x21bd8d(%rip),%rax        # 61d208 <_DYNAMIC+0x1f0>
  40147b:	48 85 c0             	test   %rax,%rax
  40147e:	74 05                	je     401485 <_init+0x15>
  401480:	e8 1b 02 00 00       	callq  4016a0 <__gmon_start__@plt>
  401485:	48 83 c4 08          	add    $0x8,%rsp
  401489:	c3                   	retq   

Disassembly of section .plt:

0000000000401490 <getenv@plt-0x10>:
  401490:	ff 35 8a bd 21 00    	pushq  0x21bd8a(%rip)        # 61d220 <_GLOBAL_OFFSET_TABLE_+0x8>
  401496:	ff 25 8c bd 21 00    	jmpq   *0x21bd8c(%rip)        # 61d228 <_GLOBAL_OFFSET_TABLE_+0x10>
  40149c:	0f 1f 40 00          	nopl   0x0(%rax)

00000000004014a0 <getenv@plt>:
  4014a0:	ff 25 8a bd 21 00    	jmpq   *0x21bd8a(%rip)        # 61d230 <_GLOBAL_OFFSET_TABLE_+0x18>
  4014a6:	68 00 00 00 00       	pushq  $0x0
  4014ab:	e9 e0 ff ff ff       	jmpq   401490 <_init+0x20>

00000000004014b0 <free@plt>:
  4014b0:	ff 25 82 bd 21 00    	jmpq   *0x21bd82(%rip)        # 61d238 <_GLOBAL_OFFSET_TABLE_+0x20>
  4014b6:	68 01 00 00 00       	pushq  $0x1
  4014bb:	e9 d0 ff ff ff       	jmpq   401490 <_init+0x20>

00000000004014c0 <__errno_location@plt>:
  4014c0:	ff 25 7a bd 21 00    	jmpq   *0x21bd7a(%rip)        # 61d240 <_GLOBAL_OFFSET_TABLE_+0x28>
  4014c6:	68 02 00 00 00       	pushq  $0x2
  4014cb:	e9 c0 ff ff ff       	jmpq   401490 <_init+0x20>

00000000004014d0 <__gmpz_tdiv_q@plt>:
  4014d0:	ff 25 72 bd 21 00    	jmpq   *0x21bd72(%rip)        # 61d248 <_GLOBAL_OFFSET_TABLE_+0x30>
  4014d6:	68 03 00 00 00       	pushq  $0x3
  4014db:	e9 b0 ff ff ff       	jmpq   401490 <_init+0x20>

00000000004014e0 <unlink@plt>:
  4014e0:	ff 25 6a bd 21 00    	jmpq   *0x21bd6a(%rip)        # 61d250 <_GLOBAL_OFFSET_TABLE_+0x38>
  4014e6:	68 04 00 00 00       	pushq  $0x4
  4014eb:	e9 a0 ff ff ff       	jmpq   401490 <_init+0x20>

00000000004014f0 <strncpy@plt>:
  4014f0:	ff 25 62 bd 21 00    	jmpq   *0x21bd62(%rip)        # 61d258 <_GLOBAL_OFFSET_TABLE_+0x40>
  4014f6:	68 05 00 00 00       	pushq  $0x5
  4014fb:	e9 90 ff ff ff       	jmpq   401490 <_init+0x20>

0000000000401500 <__gmpz_set_str@plt>:
  401500:	ff 25 5a bd 21 00    	jmpq   *0x21bd5a(%rip)        # 61d260 <_GLOBAL_OFFSET_TABLE_+0x48>
  401506:	68 06 00 00 00       	pushq  $0x6
  40150b:	e9 80 ff ff ff       	jmpq   401490 <_init+0x20>

0000000000401510 <qsort@plt>:
  401510:	ff 25 52 bd 21 00    	jmpq   *0x21bd52(%rip)        # 61d268 <_GLOBAL_OFFSET_TABLE_+0x50>
  401516:	68 07 00 00 00       	pushq  $0x7
  40151b:	e9 70 ff ff ff       	jmpq   401490 <_init+0x20>

0000000000401520 <sigaction@plt>:
  401520:	ff 25 4a bd 21 00    	jmpq   *0x21bd4a(%rip)        # 61d270 <_GLOBAL_OFFSET_TABLE_+0x58>
  401526:	68 08 00 00 00       	pushq  $0x8
  40152b:	e9 60 ff ff ff       	jmpq   401490 <_init+0x20>

0000000000401530 <fread@plt>:
  401530:	ff 25 42 bd 21 00    	jmpq   *0x21bd42(%rip)        # 61d278 <_GLOBAL_OFFSET_TABLE_+0x60>
  401536:	68 09 00 00 00       	pushq  $0x9
  40153b:	e9 50 ff ff ff       	jmpq   401490 <_init+0x20>

0000000000401540 <strtod@plt>:
  401540:	ff 25 3a bd 21 00    	jmpq   *0x21bd3a(%rip)        # 61d280 <_GLOBAL_OFFSET_TABLE_+0x68>
  401546:	68 0a 00 00 00       	pushq  $0xa
  40154b:	e9 40 ff ff ff       	jmpq   401490 <_init+0x20>

0000000000401550 <__gmpz_ior@plt>:
  401550:	ff 25 32 bd 21 00    	jmpq   *0x21bd32(%rip)        # 61d288 <_GLOBAL_OFFSET_TABLE_+0x70>
  401556:	68 0b 00 00 00       	pushq  $0xb
  40155b:	e9 30 ff ff ff       	jmpq   401490 <_init+0x20>

0000000000401560 <getpid@plt>:
  401560:	ff 25 2a bd 21 00    	jmpq   *0x21bd2a(%rip)        # 61d290 <_GLOBAL_OFFSET_TABLE_+0x78>
  401566:	68 0c 00 00 00       	pushq  $0xc
  40156b:	e9 20 ff ff ff       	jmpq   401490 <_init+0x20>

0000000000401570 <__gmpz_sub@plt>:
  401570:	ff 25 22 bd 21 00    	jmpq   *0x21bd22(%rip)        # 61d298 <_GLOBAL_OFFSET_TABLE_+0x80>
  401576:	68 0d 00 00 00       	pushq  $0xd
  40157b:	e9 10 ff ff ff       	jmpq   401490 <_init+0x20>

0000000000401580 <fclose@plt>:
  401580:	ff 25 1a bd 21 00    	jmpq   *0x21bd1a(%rip)        # 61d2a0 <_GLOBAL_OFFSET_TABLE_+0x88>
  401586:	68 0e 00 00 00       	pushq  $0xe
  40158b:	e9 00 ff ff ff       	jmpq   401490 <_init+0x20>

0000000000401590 <strlen@plt>:
  401590:	ff 25 12 bd 21 00    	jmpq   *0x21bd12(%rip)        # 61d2a8 <_GLOBAL_OFFSET_TABLE_+0x90>
  401596:	68 0f 00 00 00       	pushq  $0xf
  40159b:	e9 f0 fe ff ff       	jmpq   401490 <_init+0x20>

00000000004015a0 <__gmpz_get_str@plt>:
  4015a0:	ff 25 0a bd 21 00    	jmpq   *0x21bd0a(%rip)        # 61d2b0 <_GLOBAL_OFFSET_TABLE_+0x98>
  4015a6:	68 10 00 00 00       	pushq  $0x10
  4015ab:	e9 e0 fe ff ff       	jmpq   401490 <_init+0x20>

00000000004015b0 <system@plt>:
  4015b0:	ff 25 02 bd 21 00    	jmpq   *0x21bd02(%rip)        # 61d2b8 <_GLOBAL_OFFSET_TABLE_+0xa0>
  4015b6:	68 11 00 00 00       	pushq  $0x11
  4015bb:	e9 d0 fe ff ff       	jmpq   401490 <_init+0x20>

00000000004015c0 <__gmpz_mul@plt>:
  4015c0:	ff 25 fa bc 21 00    	jmpq   *0x21bcfa(%rip)        # 61d2c0 <_GLOBAL_OFFSET_TABLE_+0xa8>
  4015c6:	68 12 00 00 00       	pushq  $0x12
  4015cb:	e9 c0 fe ff ff       	jmpq   401490 <_init+0x20>

00000000004015d0 <snprintf@plt>:
  4015d0:	ff 25 f2 bc 21 00    	jmpq   *0x21bcf2(%rip)        # 61d2c8 <_GLOBAL_OFFSET_TABLE_+0xb0>
  4015d6:	68 13 00 00 00       	pushq  $0x13
  4015db:	e9 b0 fe ff ff       	jmpq   401490 <_init+0x20>

00000000004015e0 <__gmpz_neg@plt>:
  4015e0:	ff 25 ea bc 21 00    	jmpq   *0x21bcea(%rip)        # 61d2d0 <_GLOBAL_OFFSET_TABLE_+0xb8>
  4015e6:	68 14 00 00 00       	pushq  $0x14
  4015eb:	e9 a0 fe ff ff       	jmpq   401490 <_init+0x20>

00000000004015f0 <fputs@plt>:
  4015f0:	ff 25 e2 bc 21 00    	jmpq   *0x21bce2(%rip)        # 61d2d8 <_GLOBAL_OFFSET_TABLE_+0xc0>
  4015f6:	68 15 00 00 00       	pushq  $0x15
  4015fb:	e9 90 fe ff ff       	jmpq   401490 <_init+0x20>

0000000000401600 <memset@plt>:
  401600:	ff 25 da bc 21 00    	jmpq   *0x21bcda(%rip)        # 61d2e0 <_GLOBAL_OFFSET_TABLE_+0xc8>
  401606:	68 16 00 00 00       	pushq  $0x16
  40160b:	e9 80 fe ff ff       	jmpq   401490 <_init+0x20>

0000000000401610 <__gmpz_fdiv_q_2exp@plt>:
  401610:	ff 25 d2 bc 21 00    	jmpq   *0x21bcd2(%rip)        # 61d2e8 <_GLOBAL_OFFSET_TABLE_+0xd0>
  401616:	68 17 00 00 00       	pushq  $0x17
  40161b:	e9 70 fe ff ff       	jmpq   401490 <_init+0x20>

0000000000401620 <fputc@plt>:
  401620:	ff 25 ca bc 21 00    	jmpq   *0x21bcca(%rip)        # 61d2f0 <_GLOBAL_OFFSET_TABLE_+0xd8>
  401626:	68 18 00 00 00       	pushq  $0x18
  40162b:	e9 60 fe ff ff       	jmpq   401490 <_init+0x20>

0000000000401630 <__gmpz_mul_2exp@plt>:
  401630:	ff 25 c2 bc 21 00    	jmpq   *0x21bcc2(%rip)        # 61d2f8 <_GLOBAL_OFFSET_TABLE_+0xe0>
  401636:	68 19 00 00 00       	pushq  $0x19
  40163b:	e9 50 fe ff ff       	jmpq   401490 <_init+0x20>

0000000000401640 <__libc_start_main@plt>:
  401640:	ff 25 ba bc 21 00    	jmpq   *0x21bcba(%rip)        # 61d300 <_GLOBAL_OFFSET_TABLE_+0xe8>
  401646:	68 1a 00 00 00       	pushq  $0x1a
  40164b:	e9 40 fe ff ff       	jmpq   401490 <_init+0x20>

0000000000401650 <mkstemp64@plt>:
  401650:	ff 25 b2 bc 21 00    	jmpq   *0x21bcb2(%rip)        # 61d308 <_GLOBAL_OFFSET_TABLE_+0xf0>
  401656:	68 1b 00 00 00       	pushq  $0x1b
  40165b:	e9 30 fe ff ff       	jmpq   401490 <_init+0x20>

0000000000401660 <calloc@plt>:
  401660:	ff 25 aa bc 21 00    	jmpq   *0x21bcaa(%rip)        # 61d310 <_GLOBAL_OFFSET_TABLE_+0xf8>
  401666:	68 1c 00 00 00       	pushq  $0x1c
  40166b:	e9 20 fe ff ff       	jmpq   401490 <_init+0x20>

0000000000401670 <fprintf@plt>:
  401670:	ff 25 a2 bc 21 00    	jmpq   *0x21bca2(%rip)        # 61d318 <_GLOBAL_OFFSET_TABLE_+0x100>
  401676:	68 1d 00 00 00       	pushq  $0x1d
  40167b:	e9 10 fe ff ff       	jmpq   401490 <_init+0x20>

0000000000401680 <sigemptyset@plt>:
  401680:	ff 25 9a bc 21 00    	jmpq   *0x21bc9a(%rip)        # 61d320 <_GLOBAL_OFFSET_TABLE_+0x108>
  401686:	68 1e 00 00 00       	pushq  $0x1e
  40168b:	e9 00 fe ff ff       	jmpq   401490 <_init+0x20>

0000000000401690 <feof@plt>:
  401690:	ff 25 92 bc 21 00    	jmpq   *0x21bc92(%rip)        # 61d328 <_GLOBAL_OFFSET_TABLE_+0x110>
  401696:	68 1f 00 00 00       	pushq  $0x1f
  40169b:	e9 f0 fd ff ff       	jmpq   401490 <_init+0x20>

00000000004016a0 <__gmon_start__@plt>:
  4016a0:	ff 25 8a bc 21 00    	jmpq   *0x21bc8a(%rip)        # 61d330 <_GLOBAL_OFFSET_TABLE_+0x118>
  4016a6:	68 20 00 00 00       	pushq  $0x20
  4016ab:	e9 e0 fd ff ff       	jmpq   401490 <_init+0x20>

00000000004016b0 <umask@plt>:
  4016b0:	ff 25 82 bc 21 00    	jmpq   *0x21bc82(%rip)        # 61d338 <_GLOBAL_OFFSET_TABLE_+0x120>
  4016b6:	68 21 00 00 00       	pushq  $0x21
  4016bb:	e9 d0 fd ff ff       	jmpq   401490 <_init+0x20>

00000000004016c0 <fopen64@plt>:
  4016c0:	ff 25 7a bc 21 00    	jmpq   *0x21bc7a(%rip)        # 61d340 <_GLOBAL_OFFSET_TABLE_+0x128>
  4016c6:	68 22 00 00 00       	pushq  $0x22
  4016cb:	e9 c0 fd ff ff       	jmpq   401490 <_init+0x20>

00000000004016d0 <memcpy@plt>:
  4016d0:	ff 25 72 bc 21 00    	jmpq   *0x21bc72(%rip)        # 61d348 <_GLOBAL_OFFSET_TABLE_+0x130>
  4016d6:	68 23 00 00 00       	pushq  $0x23
  4016db:	e9 b0 fd ff ff       	jmpq   401490 <_init+0x20>

00000000004016e0 <__gmpz_tdiv_r@plt>:
  4016e0:	ff 25 6a bc 21 00    	jmpq   *0x21bc6a(%rip)        # 61d350 <_GLOBAL_OFFSET_TABLE_+0x138>
  4016e6:	68 24 00 00 00       	pushq  $0x24
  4016eb:	e9 a0 fd ff ff       	jmpq   401490 <_init+0x20>

00000000004016f0 <mmap64@plt>:
  4016f0:	ff 25 62 bc 21 00    	jmpq   *0x21bc62(%rip)        # 61d358 <_GLOBAL_OFFSET_TABLE_+0x140>
  4016f6:	68 25 00 00 00       	pushq  $0x25
  4016fb:	e9 90 fd ff ff       	jmpq   401490 <_init+0x20>

0000000000401700 <__gmpz_xor@plt>:
  401700:	ff 25 5a bc 21 00    	jmpq   *0x21bc5a(%rip)        # 61d360 <_GLOBAL_OFFSET_TABLE_+0x148>
  401706:	68 26 00 00 00       	pushq  $0x26
  40170b:	e9 80 fd ff ff       	jmpq   401490 <_init+0x20>

0000000000401710 <malloc@plt>:
  401710:	ff 25 52 bc 21 00    	jmpq   *0x21bc52(%rip)        # 61d368 <_GLOBAL_OFFSET_TABLE_+0x150>
  401716:	68 27 00 00 00       	pushq  $0x27
  40171b:	e9 70 fd ff ff       	jmpq   401490 <_init+0x20>

0000000000401720 <fflush@plt>:
  401720:	ff 25 4a bc 21 00    	jmpq   *0x21bc4a(%rip)        # 61d370 <_GLOBAL_OFFSET_TABLE_+0x158>
  401726:	68 28 00 00 00       	pushq  $0x28
  40172b:	e9 60 fd ff ff       	jmpq   401490 <_init+0x20>

0000000000401730 <fseek@plt>:
  401730:	ff 25 42 bc 21 00    	jmpq   *0x21bc42(%rip)        # 61d378 <_GLOBAL_OFFSET_TABLE_+0x160>
  401736:	68 29 00 00 00       	pushq  $0x29
  40173b:	e9 50 fd ff ff       	jmpq   401490 <_init+0x20>

0000000000401740 <mremap@plt>:
  401740:	ff 25 3a bc 21 00    	jmpq   *0x21bc3a(%rip)        # 61d380 <_GLOBAL_OFFSET_TABLE_+0x168>
  401746:	68 2a 00 00 00       	pushq  $0x2a
  40174b:	e9 40 fd ff ff       	jmpq   401490 <_init+0x20>

0000000000401750 <fdopen@plt>:
  401750:	ff 25 32 bc 21 00    	jmpq   *0x21bc32(%rip)        # 61d388 <_GLOBAL_OFFSET_TABLE_+0x170>
  401756:	68 2b 00 00 00       	pushq  $0x2b
  40175b:	e9 30 fd ff ff       	jmpq   401490 <_init+0x20>

0000000000401760 <setitimer@plt>:
  401760:	ff 25 2a bc 21 00    	jmpq   *0x21bc2a(%rip)        # 61d390 <_GLOBAL_OFFSET_TABLE_+0x178>
  401766:	68 2c 00 00 00       	pushq  $0x2c
  40176b:	e9 20 fd ff ff       	jmpq   401490 <_init+0x20>

0000000000401770 <munmap@plt>:
  401770:	ff 25 22 bc 21 00    	jmpq   *0x21bc22(%rip)        # 61d398 <_GLOBAL_OFFSET_TABLE_+0x180>
  401776:	68 2d 00 00 00       	pushq  $0x2d
  40177b:	e9 10 fd ff ff       	jmpq   401490 <_init+0x20>

0000000000401780 <__gmpz_cmp@plt>:
  401780:	ff 25 1a bc 21 00    	jmpq   *0x21bc1a(%rip)        # 61d3a0 <_GLOBAL_OFFSET_TABLE_+0x188>
  401786:	68 2e 00 00 00       	pushq  $0x2e
  40178b:	e9 00 fd ff ff       	jmpq   401490 <_init+0x20>

0000000000401790 <memmove@plt>:
  401790:	ff 25 12 bc 21 00    	jmpq   *0x21bc12(%rip)        # 61d3a8 <_GLOBAL_OFFSET_TABLE_+0x190>
  401796:	68 2f 00 00 00       	pushq  $0x2f
  40179b:	e9 f0 fc ff ff       	jmpq   401490 <_init+0x20>

00000000004017a0 <__gmpz_and@plt>:
  4017a0:	ff 25 0a bc 21 00    	jmpq   *0x21bc0a(%rip)        # 61d3b0 <_GLOBAL_OFFSET_TABLE_+0x198>
  4017a6:	68 30 00 00 00       	pushq  $0x30
  4017ab:	e9 e0 fc ff ff       	jmpq   401490 <_init+0x20>

00000000004017b0 <mprotect@plt>:
  4017b0:	ff 25 02 bc 21 00    	jmpq   *0x21bc02(%rip)        # 61d3b8 <_GLOBAL_OFFSET_TABLE_+0x1a0>
  4017b6:	68 31 00 00 00       	pushq  $0x31
  4017bb:	e9 d0 fc ff ff       	jmpq   401490 <_init+0x20>

00000000004017c0 <__gmpz_gcd@plt>:
  4017c0:	ff 25 fa bb 21 00    	jmpq   *0x21bbfa(%rip)        # 61d3c0 <_GLOBAL_OFFSET_TABLE_+0x1a8>
  4017c6:	68 32 00 00 00       	pushq  $0x32
  4017cb:	e9 c0 fc ff ff       	jmpq   401490 <_init+0x20>

00000000004017d0 <__gmpz_add@plt>:
  4017d0:	ff 25 f2 bb 21 00    	jmpq   *0x21bbf2(%rip)        # 61d3c8 <_GLOBAL_OFFSET_TABLE_+0x1b0>
  4017d6:	68 33 00 00 00       	pushq  $0x33
  4017db:	e9 b0 fc ff ff       	jmpq   401490 <_init+0x20>

00000000004017e0 <getrusage@plt>:
  4017e0:	ff 25 ea bb 21 00    	jmpq   *0x21bbea(%rip)        # 61d3d0 <_GLOBAL_OFFSET_TABLE_+0x1b8>
  4017e6:	68 34 00 00 00       	pushq  $0x34
  4017eb:	e9 a0 fc ff ff       	jmpq   401490 <_init+0x20>

00000000004017f0 <sysconf@plt>:
  4017f0:	ff 25 e2 bb 21 00    	jmpq   *0x21bbe2(%rip)        # 61d3d8 <_GLOBAL_OFFSET_TABLE_+0x1c0>
  4017f6:	68 35 00 00 00       	pushq  $0x35
  4017fb:	e9 90 fc ff ff       	jmpq   401490 <_init+0x20>

0000000000401800 <vfprintf@plt>:
  401800:	ff 25 da bb 21 00    	jmpq   *0x21bbda(%rip)        # 61d3e0 <_GLOBAL_OFFSET_TABLE_+0x1c8>
  401806:	68 36 00 00 00       	pushq  $0x36
  40180b:	e9 80 fc ff ff       	jmpq   401490 <_init+0x20>

0000000000401810 <__cxa_atexit@plt>:
  401810:	ff 25 d2 bb 21 00    	jmpq   *0x21bbd2(%rip)        # 61d3e8 <_GLOBAL_OFFSET_TABLE_+0x1d0>
  401816:	68 37 00 00 00       	pushq  $0x37
  40181b:	e9 70 fc ff ff       	jmpq   401490 <_init+0x20>

0000000000401820 <sysinfo@plt>:
  401820:	ff 25 ca bb 21 00    	jmpq   *0x21bbca(%rip)        # 61d3f0 <_GLOBAL_OFFSET_TABLE_+0x1d8>
  401826:	68 38 00 00 00       	pushq  $0x38
  40182b:	e9 60 fc ff ff       	jmpq   401490 <_init+0x20>

0000000000401830 <exit@plt>:
  401830:	ff 25 c2 bb 21 00    	jmpq   *0x21bbc2(%rip)        # 61d3f8 <_GLOBAL_OFFSET_TABLE_+0x1e0>
  401836:	68 39 00 00 00       	pushq  $0x39
  40183b:	e9 50 fc ff ff       	jmpq   401490 <_init+0x20>

0000000000401840 <fwrite@plt>:
  401840:	ff 25 ba bb 21 00    	jmpq   *0x21bbba(%rip)        # 61d400 <_GLOBAL_OFFSET_TABLE_+0x1e8>
  401846:	68 3a 00 00 00       	pushq  $0x3a
  40184b:	e9 40 fc ff ff       	jmpq   401490 <_init+0x20>

0000000000401850 <__gmpz_com@plt>:
  401850:	ff 25 b2 bb 21 00    	jmpq   *0x21bbb2(%rip)        # 61d408 <_GLOBAL_OFFSET_TABLE_+0x1f0>
  401856:	68 3b 00 00 00       	pushq  $0x3b
  40185b:	e9 30 fc ff ff       	jmpq   401490 <_init+0x20>

0000000000401860 <sigaltstack@plt>:
  401860:	ff 25 aa bb 21 00    	jmpq   *0x21bbaa(%rip)        # 61d410 <_GLOBAL_OFFSET_TABLE_+0x1f8>
  401866:	68 3c 00 00 00       	pushq  $0x3c
  40186b:	e9 20 fc ff ff       	jmpq   401490 <_init+0x20>

0000000000401870 <strerror@plt>:
  401870:	ff 25 a2 bb 21 00    	jmpq   *0x21bba2(%rip)        # 61d418 <_GLOBAL_OFFSET_TABLE_+0x200>
  401876:	68 3d 00 00 00       	pushq  $0x3d
  40187b:	e9 10 fc ff ff       	jmpq   401490 <_init+0x20>

0000000000401880 <ceil@plt>:
  401880:	ff 25 9a bb 21 00    	jmpq   *0x21bb9a(%rip)        # 61d420 <_GLOBAL_OFFSET_TABLE_+0x208>
  401886:	68 3e 00 00 00       	pushq  $0x3e
  40188b:	e9 00 fc ff ff       	jmpq   401490 <_init+0x20>

0000000000401890 <sigaddset@plt>:
  401890:	ff 25 92 bb 21 00    	jmpq   *0x21bb92(%rip)        # 61d428 <_GLOBAL_OFFSET_TABLE_+0x210>
  401896:	68 3f 00 00 00       	pushq  $0x3f
  40189b:	e9 f0 fb ff ff       	jmpq   401490 <_init+0x20>

Disassembly of section .text:

00000000004018a0 <_start>:
  4018a0:	31 ed                	xor    %ebp,%ebp
  4018a2:	49 89 d1             	mov    %rdx,%r9
  4018a5:	5e                   	pop    %rsi
  4018a6:	48 89 e2             	mov    %rsp,%rdx
  4018a9:	48 83 e4 f0          	and    $0xfffffffffffffff0,%rsp
  4018ad:	50                   	push   %rax
  4018ae:	54                   	push   %rsp
  4018af:	49 c7 c0 e0 83 41 00 	mov    $0x4183e0,%r8
  4018b6:	48 c7 c1 70 83 41 00 	mov    $0x418370,%rcx
  4018bd:	48 c7 c7 82 1e 40 00 	mov    $0x401e82,%rdi
  4018c4:	e8 77 fd ff ff       	callq  401640 <__libc_start_main@plt>
  4018c9:	f4                   	hlt    
  4018ca:	66 90                	xchg   %ax,%ax
  4018cc:	0f 1f 40 00          	nopl   0x0(%rax)

00000000004018d0 <deregister_tm_clones>:
  4018d0:	b8 d7 d6 61 00       	mov    $0x61d6d7,%eax
  4018d5:	55                   	push   %rbp
  4018d6:	48 2d d0 d6 61 00    	sub    $0x61d6d0,%rax
  4018dc:	48 83 f8 0e          	cmp    $0xe,%rax
  4018e0:	48 89 e5             	mov    %rsp,%rbp
  4018e3:	77 02                	ja     4018e7 <deregister_tm_clones+0x17>
  4018e5:	5d                   	pop    %rbp
  4018e6:	c3                   	retq   
  4018e7:	b8 00 00 00 00       	mov    $0x0,%eax
  4018ec:	48 85 c0             	test   %rax,%rax
  4018ef:	74 f4                	je     4018e5 <deregister_tm_clones+0x15>
  4018f1:	5d                   	pop    %rbp
  4018f2:	bf d0 d6 61 00       	mov    $0x61d6d0,%edi
  4018f7:	ff e0                	jmpq   *%rax
  4018f9:	0f 1f 80 00 00 00 00 	nopl   0x0(%rax)

0000000000401900 <register_tm_clones>:
  401900:	b8 d0 d6 61 00       	mov    $0x61d6d0,%eax
  401905:	55                   	push   %rbp
  401906:	48 2d d0 d6 61 00    	sub    $0x61d6d0,%rax
  40190c:	48 c1 f8 03          	sar    $0x3,%rax
  401910:	48 89 e5             	mov    %rsp,%rbp
  401913:	48 89 c2             	mov    %rax,%rdx
  401916:	48 c1 ea 3f          	shr    $0x3f,%rdx
  40191a:	48 01 d0             	add    %rdx,%rax
  40191d:	48 d1 f8             	sar    %rax
  401920:	75 02                	jne    401924 <register_tm_clones+0x24>
  401922:	5d                   	pop    %rbp
  401923:	c3                   	retq   
  401924:	ba 00 00 00 00       	mov    $0x0,%edx
  401929:	48 85 d2             	test   %rdx,%rdx
  40192c:	74 f4                	je     401922 <register_tm_clones+0x22>
  40192e:	5d                   	pop    %rbp
  40192f:	48 89 c6             	mov    %rax,%rsi
  401932:	bf d0 d6 61 00       	mov    $0x61d6d0,%edi
  401937:	ff e2                	jmpq   *%rdx
  401939:	0f 1f 80 00 00 00 00 	nopl   0x0(%rax)

0000000000401940 <__do_global_dtors_aux>:
  401940:	80 3d b1 bd 21 00 00 	cmpb   $0x0,0x21bdb1(%rip)        # 61d6f8 <completed.6359>
  401947:	75 11                	jne    40195a <__do_global_dtors_aux+0x1a>
  401949:	55                   	push   %rbp
  40194a:	48 89 e5             	mov    %rsp,%rbp
  40194d:	e8 7e ff ff ff       	callq  4018d0 <deregister_tm_clones>
  401952:	5d                   	pop    %rbp
  401953:	c6 05 9e bd 21 00 01 	movb   $0x1,0x21bd9e(%rip)        # 61d6f8 <completed.6359>
  40195a:	f3 c3                	repz retq 
  40195c:	0f 1f 40 00          	nopl   0x0(%rax)

0000000000401960 <frame_dummy>:
  401960:	48 83 3d a8 b6 21 00 	cmpq   $0x0,0x21b6a8(%rip)        # 61d010 <__JCR_END__>
  401967:	00 
  401968:	74 1e                	je     401988 <frame_dummy+0x28>
  40196a:	b8 00 00 00 00       	mov    $0x0,%eax
  40196f:	48 85 c0             	test   %rax,%rax
  401972:	74 14                	je     401988 <frame_dummy+0x28>
  401974:	55                   	push   %rbp
  401975:	bf 10 d0 61 00       	mov    $0x61d010,%edi
  40197a:	48 89 e5             	mov    %rsp,%rbp
  40197d:	ff d0                	callq  *%rax
  40197f:	5d                   	pop    %rbp
  401980:	e9 7b ff ff ff       	jmpq   401900 <register_tm_clones>
  401985:	0f 1f 00             	nopl   (%rax)
  401988:	e9 73 ff ff ff       	jmpq   401900 <register_tm_clones>
  40198d:	0f 1f 00             	nopl   (%rax)

0000000000401990 <returnAddressToFrameIndex>:
  401990:	8b 47 fc             	mov    -0x4(%rdi),%eax
  401993:	c3                   	retq   

0000000000401994 <saveGlobals>:
  401994:	53                   	push   %rbx
  401995:	48 89 fb             	mov    %rdi,%rbx
  401998:	48 89 f9             	mov    %rdi,%rcx
  40199b:	ba 00 00 00 00       	mov    $0x0,%edx
  4019a0:	be 08 00 00 00       	mov    $0x8,%esi
  4019a5:	bf a8 d8 61 00       	mov    $0x61d8a8,%edi
  4019aa:	e8 91 fe ff ff       	callq  401840 <fwrite@plt>
  4019af:	ba ff ff ff ff       	mov    $0xffffffff,%edx
  4019b4:	48 85 c0             	test   %rax,%rax
  4019b7:	0f 85 8a 01 00 00    	jne    401b47 <saveGlobals+0x1b3>
  4019bd:	48 89 d9             	mov    %rbx,%rcx
  4019c0:	ba 00 00 00 00       	mov    $0x0,%edx
  4019c5:	be 01 00 00 00       	mov    $0x1,%esi
  4019ca:	bf 9e d8 61 00       	mov    $0x61d89e,%edi
  4019cf:	e8 6c fe ff ff       	callq  401840 <fwrite@plt>
  4019d4:	ba ff ff ff ff       	mov    $0xffffffff,%edx
  4019d9:	48 85 c0             	test   %rax,%rax
  4019dc:	0f 85 65 01 00 00    	jne    401b47 <saveGlobals+0x1b3>
  4019e2:	48 89 d9             	mov    %rbx,%rcx
  4019e5:	ba 00 00 00 00       	mov    $0x0,%edx
  4019ea:	be 02 00 00 00       	mov    $0x2,%esi
  4019ef:	bf 9c d8 61 00       	mov    $0x61d89c,%edi
  4019f4:	e8 47 fe ff ff       	callq  401840 <fwrite@plt>
  4019f9:	ba ff ff ff ff       	mov    $0xffffffff,%edx
  4019fe:	48 85 c0             	test   %rax,%rax
  401a01:	0f 85 40 01 00 00    	jne    401b47 <saveGlobals+0x1b3>
  401a07:	48 89 d9             	mov    %rbx,%rcx
  401a0a:	ba 00 00 00 00       	mov    $0x0,%edx
  401a0f:	be 04 00 00 00       	mov    $0x4,%esi
  401a14:	bf 98 d8 61 00       	mov    $0x61d898,%edi
  401a19:	e8 22 fe ff ff       	callq  401840 <fwrite@plt>
  401a1e:	ba ff ff ff ff       	mov    $0xffffffff,%edx
  401a23:	48 85 c0             	test   %rax,%rax
  401a26:	0f 85 1b 01 00 00    	jne    401b47 <saveGlobals+0x1b3>
  401a2c:	48 89 d9             	mov    %rbx,%rcx
  401a2f:	ba 00 00 00 00       	mov    $0x0,%edx
  401a34:	be 08 00 00 00       	mov    $0x8,%esi
  401a39:	bf 90 d8 61 00       	mov    $0x61d890,%edi
  401a3e:	e8 fd fd ff ff       	callq  401840 <fwrite@plt>
  401a43:	ba ff ff ff ff       	mov    $0xffffffff,%edx
  401a48:	48 85 c0             	test   %rax,%rax
  401a4b:	0f 85 f6 00 00 00    	jne    401b47 <saveGlobals+0x1b3>
  401a51:	48 89 d9             	mov    %rbx,%rcx
  401a54:	ba 0d 00 00 00       	mov    $0xd,%edx
  401a59:	be 08 00 00 00       	mov    $0x8,%esi
  401a5e:	bf 20 d8 61 00       	mov    $0x61d820,%edi
  401a63:	e8 d8 fd ff ff       	callq  401840 <fwrite@plt>
  401a68:	ba ff ff ff ff       	mov    $0xffffffff,%edx
  401a6d:	48 83 f8 0d          	cmp    $0xd,%rax
  401a71:	0f 85 d0 00 00 00    	jne    401b47 <saveGlobals+0x1b3>
  401a77:	48 89 d9             	mov    %rbx,%rcx
  401a7a:	ba 00 00 00 00       	mov    $0x0,%edx
  401a7f:	be 04 00 00 00       	mov    $0x4,%esi
  401a84:	bf 08 d8 61 00       	mov    $0x61d808,%edi
  401a89:	e8 b2 fd ff ff       	callq  401840 <fwrite@plt>
  401a8e:	ba ff ff ff ff       	mov    $0xffffffff,%edx
  401a93:	48 85 c0             	test   %rax,%rax
  401a96:	0f 85 ab 00 00 00    	jne    401b47 <saveGlobals+0x1b3>
  401a9c:	48 89 d9             	mov    %rbx,%rcx
  401a9f:	ba 00 00 00 00       	mov    $0x0,%edx
  401aa4:	be 08 00 00 00       	mov    $0x8,%esi
  401aa9:	bf 00 d8 61 00       	mov    $0x61d800,%edi
  401aae:	e8 8d fd ff ff       	callq  401840 <fwrite@plt>
  401ab3:	ba ff ff ff ff       	mov    $0xffffffff,%edx
  401ab8:	48 85 c0             	test   %rax,%rax
  401abb:	0f 85 86 00 00 00    	jne    401b47 <saveGlobals+0x1b3>
  401ac1:	48 89 d9             	mov    %rbx,%rcx
  401ac4:	ba 00 00 00 00       	mov    $0x0,%edx
  401ac9:	be 01 00 00 00       	mov    $0x1,%esi
  401ace:	bf f4 d7 61 00       	mov    $0x61d7f4,%edi
  401ad3:	e8 68 fd ff ff       	callq  401840 <fwrite@plt>
  401ad8:	ba ff ff ff ff       	mov    $0xffffffff,%edx
  401add:	48 85 c0             	test   %rax,%rax
  401ae0:	75 65                	jne    401b47 <saveGlobals+0x1b3>
  401ae2:	48 89 d9             	mov    %rbx,%rcx
  401ae5:	ba 00 00 00 00       	mov    $0x0,%edx
  401aea:	be 02 00 00 00       	mov    $0x2,%esi
  401aef:	bf f2 d7 61 00       	mov    $0x61d7f2,%edi
  401af4:	e8 47 fd ff ff       	callq  401840 <fwrite@plt>
  401af9:	ba ff ff ff ff       	mov    $0xffffffff,%edx
  401afe:	48 85 c0             	test   %rax,%rax
  401b01:	75 44                	jne    401b47 <saveGlobals+0x1b3>
  401b03:	48 89 d9             	mov    %rbx,%rcx
  401b06:	ba 04 00 00 00       	mov    $0x4,%edx
  401b0b:	be 04 00 00 00       	mov    $0x4,%esi
  401b10:	bf e0 d7 61 00       	mov    $0x61d7e0,%edi
  401b15:	e8 26 fd ff ff       	callq  401840 <fwrite@plt>
  401b1a:	ba ff ff ff ff       	mov    $0xffffffff,%edx
  401b1f:	48 83 f8 04          	cmp    $0x4,%rax
  401b23:	75 22                	jne    401b47 <saveGlobals+0x1b3>
  401b25:	48 89 d9             	mov    %rbx,%rcx
  401b28:	ba 00 00 00 00       	mov    $0x0,%edx
  401b2d:	be 08 00 00 00       	mov    $0x8,%esi
  401b32:	bf d8 d7 61 00       	mov    $0x61d7d8,%edi
  401b37:	e8 04 fd ff ff       	callq  401840 <fwrite@plt>
  401b3c:	48 85 c0             	test   %rax,%rax
  401b3f:	0f 95 c2             	setne  %dl
  401b42:	0f b6 d2             	movzbl %dl,%edx
  401b45:	f7 da                	neg    %edx
  401b47:	89 d0                	mov    %edx,%eax
  401b49:	5b                   	pop    %rbx
  401b4a:	c3                   	retq   

0000000000401b4b <loadGlobals>:
  401b4b:	53                   	push   %rbx
  401b4c:	48 89 fb             	mov    %rdi,%rbx
  401b4f:	48 89 f9             	mov    %rdi,%rcx
  401b52:	ba 00 00 00 00       	mov    $0x0,%edx
  401b57:	be 08 00 00 00       	mov    $0x8,%esi
  401b5c:	bf a8 d8 61 00       	mov    $0x61d8a8,%edi
  401b61:	e8 ca f9 ff ff       	callq  401530 <fread@plt>
  401b66:	ba ff ff ff ff       	mov    $0xffffffff,%edx
  401b6b:	48 85 c0             	test   %rax,%rax
  401b6e:	0f 85 8a 01 00 00    	jne    401cfe <loadGlobals+0x1b3>
  401b74:	48 89 d9             	mov    %rbx,%rcx
  401b77:	ba 00 00 00 00       	mov    $0x0,%edx
  401b7c:	be 01 00 00 00       	mov    $0x1,%esi
  401b81:	bf 9e d8 61 00       	mov    $0x61d89e,%edi
  401b86:	e8 a5 f9 ff ff       	callq  401530 <fread@plt>
  401b8b:	ba ff ff ff ff       	mov    $0xffffffff,%edx
  401b90:	48 85 c0             	test   %rax,%rax
  401b93:	0f 85 65 01 00 00    	jne    401cfe <loadGlobals+0x1b3>
  401b99:	48 89 d9             	mov    %rbx,%rcx
  401b9c:	ba 00 00 00 00       	mov    $0x0,%edx
  401ba1:	be 02 00 00 00       	mov    $0x2,%esi
  401ba6:	bf 9c d8 61 00       	mov    $0x61d89c,%edi
  401bab:	e8 80 f9 ff ff       	callq  401530 <fread@plt>
  401bb0:	ba ff ff ff ff       	mov    $0xffffffff,%edx
  401bb5:	48 85 c0             	test   %rax,%rax
  401bb8:	0f 85 40 01 00 00    	jne    401cfe <loadGlobals+0x1b3>
  401bbe:	48 89 d9             	mov    %rbx,%rcx
  401bc1:	ba 00 00 00 00       	mov    $0x0,%edx
  401bc6:	be 04 00 00 00       	mov    $0x4,%esi
  401bcb:	bf 98 d8 61 00       	mov    $0x61d898,%edi
  401bd0:	e8 5b f9 ff ff       	callq  401530 <fread@plt>
  401bd5:	ba ff ff ff ff       	mov    $0xffffffff,%edx
  401bda:	48 85 c0             	test   %rax,%rax
  401bdd:	0f 85 1b 01 00 00    	jne    401cfe <loadGlobals+0x1b3>
  401be3:	48 89 d9             	mov    %rbx,%rcx
  401be6:	ba 00 00 00 00       	mov    $0x0,%edx
  401beb:	be 08 00 00 00       	mov    $0x8,%esi
  401bf0:	bf 90 d8 61 00       	mov    $0x61d890,%edi
  401bf5:	e8 36 f9 ff ff       	callq  401530 <fread@plt>
  401bfa:	ba ff ff ff ff       	mov    $0xffffffff,%edx
  401bff:	48 85 c0             	test   %rax,%rax
  401c02:	0f 85 f6 00 00 00    	jne    401cfe <loadGlobals+0x1b3>
  401c08:	48 89 d9             	mov    %rbx,%rcx
  401c0b:	ba 0d 00 00 00       	mov    $0xd,%edx
  401c10:	be 08 00 00 00       	mov    $0x8,%esi
  401c15:	bf 20 d8 61 00       	mov    $0x61d820,%edi
  401c1a:	e8 11 f9 ff ff       	callq  401530 <fread@plt>
  401c1f:	ba ff ff ff ff       	mov    $0xffffffff,%edx
  401c24:	48 83 f8 0d          	cmp    $0xd,%rax
  401c28:	0f 85 d0 00 00 00    	jne    401cfe <loadGlobals+0x1b3>
  401c2e:	48 89 d9             	mov    %rbx,%rcx
  401c31:	ba 00 00 00 00       	mov    $0x0,%edx
  401c36:	be 04 00 00 00       	mov    $0x4,%esi
  401c3b:	bf 08 d8 61 00       	mov    $0x61d808,%edi
  401c40:	e8 eb f8 ff ff       	callq  401530 <fread@plt>
  401c45:	ba ff ff ff ff       	mov    $0xffffffff,%edx
  401c4a:	48 85 c0             	test   %rax,%rax
  401c4d:	0f 85 ab 00 00 00    	jne    401cfe <loadGlobals+0x1b3>
  401c53:	48 89 d9             	mov    %rbx,%rcx
  401c56:	ba 00 00 00 00       	mov    $0x0,%edx
  401c5b:	be 08 00 00 00       	mov    $0x8,%esi
  401c60:	bf 00 d8 61 00       	mov    $0x61d800,%edi
  401c65:	e8 c6 f8 ff ff       	callq  401530 <fread@plt>
  401c6a:	ba ff ff ff ff       	mov    $0xffffffff,%edx
  401c6f:	48 85 c0             	test   %rax,%rax
  401c72:	0f 85 86 00 00 00    	jne    401cfe <loadGlobals+0x1b3>
  401c78:	48 89 d9             	mov    %rbx,%rcx
  401c7b:	ba 00 00 00 00       	mov    $0x0,%edx
  401c80:	be 01 00 00 00       	mov    $0x1,%esi
  401c85:	bf f4 d7 61 00       	mov    $0x61d7f4,%edi
  401c8a:	e8 a1 f8 ff ff       	callq  401530 <fread@plt>
  401c8f:	ba ff ff ff ff       	mov    $0xffffffff,%edx
  401c94:	48 85 c0             	test   %rax,%rax
  401c97:	75 65                	jne    401cfe <loadGlobals+0x1b3>
  401c99:	48 89 d9             	mov    %rbx,%rcx
  401c9c:	ba 00 00 00 00       	mov    $0x0,%edx
  401ca1:	be 02 00 00 00       	mov    $0x2,%esi
  401ca6:	bf f2 d7 61 00       	mov    $0x61d7f2,%edi
  401cab:	e8 80 f8 ff ff       	callq  401530 <fread@plt>
  401cb0:	ba ff ff ff ff       	mov    $0xffffffff,%edx
  401cb5:	48 85 c0             	test   %rax,%rax
  401cb8:	75 44                	jne    401cfe <loadGlobals+0x1b3>
  401cba:	48 89 d9             	mov    %rbx,%rcx
  401cbd:	ba 04 00 00 00       	mov    $0x4,%edx
  401cc2:	be 04 00 00 00       	mov    $0x4,%esi
  401cc7:	bf e0 d7 61 00       	mov    $0x61d7e0,%edi
  401ccc:	e8 5f f8 ff ff       	callq  401530 <fread@plt>
  401cd1:	ba ff ff ff ff       	mov    $0xffffffff,%edx
  401cd6:	48 83 f8 04          	cmp    $0x4,%rax
  401cda:	75 22                	jne    401cfe <loadGlobals+0x1b3>
  401cdc:	48 89 d9             	mov    %rbx,%rcx
  401cdf:	ba 00 00 00 00       	mov    $0x0,%edx
  401ce4:	be 08 00 00 00       	mov    $0x8,%esi
  401ce9:	bf d8 d7 61 00       	mov    $0x61d7d8,%edi
  401cee:	e8 3d f8 ff ff       	callq  401530 <fread@plt>
  401cf3:	48 85 c0             	test   %rax,%rax
  401cf6:	0f 95 c2             	setne  %dl
  401cf9:	0f b6 d2             	movzbl %dl,%edx
  401cfc:	f7 da                	neg    %edx
  401cfe:	89 d0                	mov    %edx,%eax
  401d00:	5b                   	pop    %rbx
  401d01:	c3                   	retq   

0000000000401d02 <MLton_main>:
  401d02:	48 83 ec 08          	sub    $0x8,%rsp
  401d06:	48 c7 05 ef c4 21 00 	movq   $0x61d8c0,0x21c4ef(%rip)        # 61e200 <gcStateAddress>
  401d0d:	c0 d8 61 00 
  401d11:	48 c7 05 cc bb 21 00 	movq   $0x8,0x21bbcc(%rip)        # 61d8e8 <gcState+0x28>
  401d18:	08 00 00 00 
  401d1c:	48 c7 05 d1 bb 21 00 	movq   $0x61d460,0x21bbd1(%rip)        # 61d8f8 <gcState+0x38>
  401d23:	60 d4 61 00 
  401d27:	c7 05 cf bb 21 00 03 	movl   $0x3,0x21bbcf(%rip)        # 61d900 <gcState+0x40>
  401d2e:	00 00 00 
  401d31:	48 c7 05 34 bf 21 00 	movq   $0x61d540,0x21bf34(%rip)        # 61dc70 <gcState+0x3b0>
  401d38:	40 d5 61 00 
  401d3c:	c7 05 32 bf 21 00 05 	movl   $0x5,0x21bf32(%rip)        # 61dc78 <gcState+0x3b8>
  401d43:	00 00 00 
  401d46:	48 c7 05 5f bf 21 00 	movq   $0x61d820,0x21bf5f(%rip)        # 61dcb0 <gcState+0x3f0>
  401d4d:	20 d8 61 00 
  401d51:	c7 05 5d bf 21 00 0d 	movl   $0xd,0x21bf5d(%rip)        # 61dcb8 <gcState+0x3f8>
  401d58:	00 00 00 
  401d5b:	48 c7 05 82 bf 21 00 	movq   $0x61e220,0x21bf82(%rip)        # 61dce8 <gcState+0x428>
  401d62:	20 e2 61 00 
  401d66:	c7 05 80 bf 21 00 00 	movl   $0x0,0x21bf80(%rip)        # 61dcf0 <gcState+0x430>
  401d6d:	00 00 00 
  401d70:	48 c7 05 a5 bf 21 00 	movq   $0x401b4b,0x21bfa5(%rip)        # 61dd20 <gcState+0x460>
  401d77:	4b 1b 40 00 
  401d7b:	c7 05 a3 bf 21 00 86 	movl   $0xc1bd2886,0x21bfa3(%rip)        # 61dd28 <gcState+0x468>
  401d82:	28 bd c1 
  401d85:	c7 05 9d bf 21 00 28 	movl   $0x28,0x21bf9d(%rip)        # 61dd2c <gcState+0x46c>
  401d8c:	00 00 00 
  401d8f:	c6 05 9a bf 21 00 01 	movb   $0x1,0x21bf9a(%rip)        # 61dd30 <gcState+0x470>
  401d96:	48 c7 05 9f bf 21 00 	movq   $0x61d480,0x21bf9f(%rip)        # 61dd40 <gcState+0x480>
  401d9d:	80 d4 61 00 
  401da1:	c7 05 9d bf 21 00 10 	movl   $0x10,0x21bf9d(%rip)        # 61dd48 <gcState+0x488>
  401da8:	00 00 00 
  401dab:	48 c7 05 b2 bf 21 00 	movq   $0x401990,0x21bfb2(%rip)        # 61dd68 <gcState+0x4a8>
  401db2:	90 19 40 00 
  401db6:	48 c7 05 b7 bf 21 00 	movq   $0x401994,0x21bfb7(%rip)        # 61dd78 <gcState+0x4b8>
  401dbd:	94 19 40 00 
  401dc1:	48 c7 05 7c c1 21 00 	movq   $0x61d5e0,0x21c17c(%rip)        # 61df48 <gcState+0x688>
  401dc8:	e0 d5 61 00 
  401dcc:	c7 05 7a c1 21 00 06 	movl   $0x6,0x21c17a(%rip)        # 61df50 <gcState+0x690>
  401dd3:	00 00 00 
  401dd6:	48 c7 05 e7 c0 21 00 	movq   $0x61e210,0x21c0e7(%rip)        # 61dec8 <gcState+0x608>
  401ddd:	10 e2 61 00 
  401de1:	c7 05 e5 c0 21 00 00 	movl   $0x0,0x21c0e5(%rip)        # 61ded0 <gcState+0x610>
  401de8:	00 00 00 
  401deb:	48 c7 05 e2 c0 21 00 	movq   $0x61e210,0x21c0e2(%rip)        # 61ded8 <gcState+0x618>
  401df2:	10 e2 61 00 
  401df6:	c7 05 e0 c0 21 00 00 	movl   $0x0,0x21c0e0(%rip)        # 61dee0 <gcState+0x620>
  401dfd:	00 00 00 
  401e00:	48 c7 05 dd c0 21 00 	movq   $0x61e208,0x21c0dd(%rip)        # 61dee8 <gcState+0x628>
  401e07:	08 e2 61 00 
  401e0b:	c7 05 db c0 21 00 00 	movl   $0x0,0x21c0db(%rip)        # 61def0 <gcState+0x630>
  401e12:	00 00 00 
  401e15:	48 c7 05 d8 c0 21 00 	movq   $0x61e210,0x21c0d8(%rip)        # 61def8 <gcState+0x638>
  401e1c:	10 e2 61 00 
  401e20:	c7 05 d6 c0 21 00 00 	movl   $0x0,0x21c0d6(%rip)        # 61df00 <gcState+0x640>
  401e27:	00 00 00 
  401e2a:	48 c7 05 d3 c0 21 00 	movq   $0x61e208,0x21c0d3(%rip)        # 61df08 <gcState+0x648>
  401e31:	08 e2 61 00 
  401e35:	c7 05 d1 c0 21 00 00 	movl   $0x0,0x21c0d1(%rip)        # 61df10 <gcState+0x650>
  401e3c:	00 00 00 
  401e3f:	c7 05 13 bf 21 00 02 	movl   $0x2,0x21bf13(%rip)        # 61dd5c <gcState+0x49c>
  401e46:	00 00 00 
  401e49:	c6 05 10 bf 21 00 00 	movb   $0x0,0x21bf10(%rip)        # 61dd60 <gcState+0x4a0>
  401e50:	ba c0 d8 61 00       	mov    $0x61d8c0,%edx
  401e55:	e8 26 0e 00 00       	callq  402c80 <MLton_init>
  401e5a:	bf 20 1f 40 00       	mov    $0x401f20,%edi
  401e5f:	80 3d 8b ba 21 00 00 	cmpb   $0x0,0x21ba8b(%rip)        # 61d8f1 <gcState+0x31>
  401e66:	75 0b                	jne    401e73 <MLton_main+0x171>
  401e68:	48 8b 05 61 ba 21 00 	mov    0x21ba61(%rip),%rax        # 61d8d0 <gcState+0x10>
  401e6f:	48 8b 78 f8          	mov    -0x8(%rax),%rdi
  401e73:	e8 18 00 00 00       	callq  401e90 <MLton_jumpToSML>
  401e78:	b8 01 00 00 00       	mov    $0x1,%eax
  401e7d:	48 83 c4 08          	add    $0x8,%rsp
  401e81:	c3                   	retq   

0000000000401e82 <main>:
  401e82:	48 83 ec 08          	sub    $0x8,%rsp
  401e86:	e8 77 fe ff ff       	callq  401d02 <MLton_main>
  401e8b:	48 83 c4 08          	add    $0x8,%rsp
  401e8f:	c3                   	retq   

0000000000401e90 <MLton_jumpToSML>:
  401e90:	48 83 ec 48          	sub    $0x48,%rsp
  401e94:	48 89 6c 24 40       	mov    %rbp,0x40(%rsp)
  401e99:	48 89 5c 24 38       	mov    %rbx,0x38(%rsp)
  401e9e:	4c 89 64 24 30       	mov    %r12,0x30(%rsp)
  401ea3:	4c 89 6c 24 28       	mov    %r13,0x28(%rsp)
  401ea8:	4c 89 74 24 20       	mov    %r14,0x20(%rsp)
  401ead:	4c 89 7c 24 18       	mov    %r15,0x18(%rsp)
  401eb2:	48 8b 1d ef c1 21 00 	mov    0x21c1ef(%rip),%rbx        # 61e0a8 <c_stackP>
  401eb9:	48 89 5c 24 10       	mov    %rbx,0x10(%rsp)
  401ebe:	48 89 25 e3 c1 21 00 	mov    %rsp,0x21c1e3(%rip)        # 61e0a8 <c_stackP>
  401ec5:	48 8b 2d 04 ba 21 00 	mov    0x21ba04(%rip),%rbp        # 61d8d0 <gcState+0x10>
  401ecc:	4c 8b 25 ed b9 21 00 	mov    0x21b9ed(%rip),%r12        # 61d8c0 <gcState>
  401ed3:	ff e7                	jmpq   *%rdi
  401ed5:	66 66 2e 0f 1f 84 00 	data32 nopw %cs:0x0(%rax,%rax,1)
  401edc:	00 00 00 00 

0000000000401ee0 <Thread_returnToC>:
  401ee0:	48 8b 25 c1 c1 21 00 	mov    0x21c1c1(%rip),%rsp        # 61e0a8 <c_stackP>
  401ee7:	48 8b 5c 24 10       	mov    0x10(%rsp),%rbx
  401eec:	48 89 1d b5 c1 21 00 	mov    %rbx,0x21c1b5(%rip)        # 61e0a8 <c_stackP>
  401ef3:	4c 8b 7c 24 18       	mov    0x18(%rsp),%r15
  401ef8:	4c 8b 74 24 20       	mov    0x20(%rsp),%r14
  401efd:	4c 8b 6c 24 28       	mov    0x28(%rsp),%r13
  401f02:	4c 8b 64 24 30       	mov    0x30(%rsp),%r12
  401f07:	48 8b 5c 24 38       	mov    0x38(%rsp),%rbx
  401f0c:	48 8b 6c 24 40       	mov    0x40(%rsp),%rbp
  401f11:	48 83 c4 48          	add    $0x48,%rsp
  401f15:	c3                   	retq   
  401f16:	66 2e 0f 1f 84 00 00 	nopw   %cs:0x0(%rax,%rax,1)
  401f1d:	00 00 00 

0000000000401f20 <F_0>:
  401f20:	4c 8b 3d b1 b9 21 00 	mov    0x21b9b1(%rip),%r15        # 61d8d8 <gcState+0x18>
  401f27:	49 39 ef             	cmp    %rbp,%r15
  401f2a:	0f 92 c0             	setb   %al
  401f2d:	0f b6 c0             	movzbl %al,%eax
  401f30:	85 c0                	test   %eax,%eax
  401f32:	89 05 a8 b8 21 00    	mov    %eax,0x21b8a8(%rip)        # 61d7e0 <globalWord32>
  401f38:	0f 85 b2 02 00 00    	jne    4021f0 <L_100>

0000000000401f3e <L_101>:
  401f3e:	4c 8b 35 83 b9 21 00 	mov    0x21b983(%rip),%r14        # 61d8c8 <gcState+0x8>
  401f45:	4d 39 e6             	cmp    %r12,%r14
  401f48:	0f 92 c3             	setb   %bl
  401f4b:	0f b6 db             	movzbl %bl,%ebx
  401f4e:	85 db                	test   %ebx,%ebx
  401f50:	89 1d 8e b8 21 00    	mov    %ebx,0x21b88e(%rip)        # 61d7e4 <globalWord32+0x4>
  401f56:	0f 85 94 02 00 00    	jne    4021f0 <L_100>

0000000000401f5c <L_102>:
  401f5c:	49 c7 c7 1f 00 00 00 	mov    $0x1f,%r15
  401f63:	4d 89 e6             	mov    %r12,%r14
  401f66:	49 83 c6 08          	add    $0x8,%r14
  401f6a:	4d 89 f5             	mov    %r14,%r13
  401f6d:	4d 89 3c 24          	mov    %r15,(%r12)
  401f71:	4d 89 e4             	mov    %r12,%r12
  401f74:	49 83 c4 10          	add    $0x10,%r12
  401f78:	49 c7 c7 01 00 00 00 	mov    $0x1,%r15
  401f7f:	4c 8b 35 22 c1 21 00 	mov    0x21c122(%rip),%r14        # 61e0a8 <c_stackP>
  401f86:	4c 89 f4             	mov    %r14,%rsp
  401f89:	49 c7 c6 11 00 00 00 	mov    $0x11,%r14
  401f90:	4c 89 f1             	mov    %r14,%rcx
  401f93:	4d 31 f6             	xor    %r14,%r14
  401f96:	4c 89 f2             	mov    %r14,%rdx
  401f99:	49 c7 c6 48 00 00 00 	mov    $0x48,%r14
  401fa0:	4c 89 f6             	mov    %r14,%rsi
  401fa3:	4c 8d 35 16 b9 21 00 	lea    0x21b916(%rip),%r14        # 61d8c0 <gcState>
  401faa:	4d 89 f3             	mov    %r14,%r11
  401fad:	4c 89 df             	mov    %r11,%rdi
  401fb0:	4d 31 f6             	xor    %r14,%r14
  401fb3:	4c 89 f0             	mov    %r14,%rax
  401fb6:	48 83 c5 08          	add    $0x8,%rbp
  401fba:	4c 8d 35 43 00 00 00 	lea    0x43(%rip),%r14        # 402004 <L_103>
  401fc1:	4c 89 75 f8          	mov    %r14,-0x8(%rbp)
  401fc5:	4d 89 7d 00          	mov    %r15,0x0(%r13)
  401fc9:	4c 89 2d 50 b8 21 00 	mov    %r13,0x21b850(%rip)        # 61d820 <globalObjptr>
  401fd0:	4c 89 25 e9 b8 21 00 	mov    %r12,0x21b8e9(%rip)        # 61d8c0 <gcState>
  401fd7:	48 89 2d f2 b8 21 00 	mov    %rbp,0x21b8f2(%rip)        # 61d8d0 <gcState+0x10>
  401fde:	e8 8d ce 00 00       	callq  40ee70 <GC_arrayAllocate>
  401fe3:	4c 8b 3d d6 b8 21 00 	mov    0x21b8d6(%rip),%r15        # 61d8c0 <gcState>
  401fea:	4d 89 fc             	mov    %r15,%r12
  401fed:	4c 8b 3d dc b8 21 00 	mov    0x21b8dc(%rip),%r15        # 61d8d0 <gcState+0x10>
  401ff4:	4c 89 fd             	mov    %r15,%rbp
  401ff7:	eb 0b                	jmp    402004 <L_103>
  401ff9:	0f 1f 80 00 00 00 00 	nopl   0x0(%rax)
  402000:	00 00                	add    %al,(%rax)
	...

0000000000402004 <L_103>:
  402004:	48 83 c5 f8          	add    $0xfffffffffffffff8,%rbp
  402008:	49 89 c7             	mov    %rax,%r15
  40200b:	4c 8b 35 96 c0 21 00 	mov    0x21c096(%rip),%r14        # 61e0a8 <c_stackP>
  402012:	4c 89 f4             	mov    %r14,%rsp
  402015:	49 c7 c6 11 00 00 00 	mov    $0x11,%r14
  40201c:	4c 89 f1             	mov    %r14,%rcx
  40201f:	4d 31 f6             	xor    %r14,%r14
  402022:	4c 89 f2             	mov    %r14,%rdx
  402025:	49 c7 c6 48 00 00 00 	mov    $0x48,%r14
  40202c:	4c 89 f6             	mov    %r14,%rsi
  40202f:	4c 8d 35 8a b8 21 00 	lea    0x21b88a(%rip),%r14        # 61d8c0 <gcState>
  402036:	4d 89 f5             	mov    %r14,%r13
  402039:	4c 89 ef             	mov    %r13,%rdi
  40203c:	4d 31 f6             	xor    %r14,%r14
  40203f:	49 96                	xchg   %rax,%r14
  402041:	48 83 c5 08          	add    $0x8,%rbp
  402045:	4c 8d 2d 38 00 00 00 	lea    0x38(%rip),%r13        # 402084 <L_104>
  40204c:	4c 89 6d f8          	mov    %r13,-0x8(%rbp)
  402050:	4c 89 3d d1 b7 21 00 	mov    %r15,0x21b7d1(%rip)        # 61d828 <globalObjptr+0x8>
  402057:	4c 89 25 62 b8 21 00 	mov    %r12,0x21b862(%rip)        # 61d8c0 <gcState>
  40205e:	48 89 2d 6b b8 21 00 	mov    %rbp,0x21b86b(%rip)        # 61d8d0 <gcState+0x10>
  402065:	e8 06 ce 00 00       	callq  40ee70 <GC_arrayAllocate>
  40206a:	4c 8b 3d 4f b8 21 00 	mov    0x21b84f(%rip),%r15        # 61d8c0 <gcState>
  402071:	4d 89 fc             	mov    %r15,%r12
  402074:	4c 8b 3d 55 b8 21 00 	mov    0x21b855(%rip),%r15        # 61d8d0 <gcState+0x10>
  40207b:	4c 89 fd             	mov    %r15,%rbp
  40207e:	eb 04                	jmp    402084 <L_104>
  402080:	00 00                	add    %al,(%rax)
	...

0000000000402084 <L_104>:
  402084:	48 83 c5 f8          	add    $0xfffffffffffffff8,%rbp
  402088:	49 89 c7             	mov    %rax,%r15
  40208b:	4c 8b 35 16 c0 21 00 	mov    0x21c016(%rip),%r14        # 61e0a8 <c_stackP>
  402092:	4c 89 f4             	mov    %r14,%rsp
  402095:	49 c7 c6 11 00 00 00 	mov    $0x11,%r14
  40209c:	4c 89 f1             	mov    %r14,%rcx
  40209f:	4d 31 f6             	xor    %r14,%r14
  4020a2:	4c 89 f2             	mov    %r14,%rdx
  4020a5:	49 c7 c6 48 00 00 00 	mov    $0x48,%r14
  4020ac:	4c 89 f6             	mov    %r14,%rsi
  4020af:	4c 8d 35 0a b8 21 00 	lea    0x21b80a(%rip),%r14        # 61d8c0 <gcState>
  4020b6:	4d 89 f5             	mov    %r14,%r13
  4020b9:	4c 89 ef             	mov    %r13,%rdi
  4020bc:	4d 31 f6             	xor    %r14,%r14
  4020bf:	49 96                	xchg   %rax,%r14
  4020c1:	48 83 c5 08          	add    $0x8,%rbp
  4020c5:	4c 8d 2d 38 00 00 00 	lea    0x38(%rip),%r13        # 402104 <L_105>
  4020cc:	4c 89 6d f8          	mov    %r13,-0x8(%rbp)
  4020d0:	4c 89 3d 59 b7 21 00 	mov    %r15,0x21b759(%rip)        # 61d830 <globalObjptr+0x10>
  4020d7:	4c 89 25 e2 b7 21 00 	mov    %r12,0x21b7e2(%rip)        # 61d8c0 <gcState>
  4020de:	48 89 2d eb b7 21 00 	mov    %rbp,0x21b7eb(%rip)        # 61d8d0 <gcState+0x10>
  4020e5:	e8 86 cd 00 00       	callq  40ee70 <GC_arrayAllocate>
  4020ea:	4c 8b 3d cf b7 21 00 	mov    0x21b7cf(%rip),%r15        # 61d8c0 <gcState>
  4020f1:	4d 89 fc             	mov    %r15,%r12
  4020f4:	4c 8b 3d d5 b7 21 00 	mov    0x21b7d5(%rip),%r15        # 61d8d0 <gcState+0x10>
  4020fb:	4c 89 fd             	mov    %r15,%rbp
  4020fe:	eb 04                	jmp    402104 <L_105>
  402100:	00 00                	add    %al,(%rax)
	...

0000000000402104 <L_105>:
  402104:	48 83 c5 f8          	add    $0xfffffffffffffff8,%rbp
  402108:	49 89 c7             	mov    %rax,%r15
  40210b:	49 c7 c6 19 00 00 00 	mov    $0x19,%r14
  402112:	4d 89 e5             	mov    %r12,%r13
  402115:	49 83 c5 08          	add    $0x8,%r13
  402119:	4d 89 eb             	mov    %r13,%r11
  40211c:	4d 89 34 24          	mov    %r14,(%r12)
  402120:	4d 89 e4             	mov    %r12,%r12
  402123:	49 83 c4 18          	add    $0x18,%r12
  402127:	66 41 be 41 46       	mov    $0x4641,%r14w
  40212c:	45 0f b7 ee          	movzwl %r14w,%r13d
  402130:	45 89 ee             	mov    %r13d,%r14d
  402133:	45 31 d2             	xor    %r10d,%r10d
  402136:	49 c7 c1 01 00 00 00 	mov    $0x1,%r9
  40213d:	4d 89 4b 08          	mov    %r9,0x8(%r11)
  402141:	45 89 33             	mov    %r14d,(%r11)
  402144:	45 89 53 04          	mov    %r10d,0x4(%r11)
  402148:	49 c7 c0 19 00 00 00 	mov    $0x19,%r8
  40214f:	4c 89 e4             	mov    %r12,%rsp
  402152:	48 83 c4 08          	add    $0x8,%rsp
  402156:	48 89 e6             	mov    %rsp,%rsi
  402159:	4d 89 04 24          	mov    %r8,(%r12)
  40215d:	4d 89 e4             	mov    %r12,%r12
  402160:	49 83 c4 18          	add    $0x18,%r12
  402164:	66 41 b8 61 66       	mov    $0x6661,%r8w
  402169:	41 0f b7 e0          	movzwl %r8w,%esp
  40216d:	41 89 e0             	mov    %esp,%r8d
  402170:	31 ff                	xor    %edi,%edi
  402172:	4c 89 da             	mov    %r11,%rdx
  402175:	48 89 56 08          	mov    %rdx,0x8(%rsi)
  402179:	89 7e 04             	mov    %edi,0x4(%rsi)
  40217c:	44 89 06             	mov    %r8d,(%rsi)
  40217f:	48 c7 c1 1b 00 00 00 	mov    $0x1b,%rcx
  402186:	4c 89 e3             	mov    %r12,%rbx
  402189:	48 83 c3 08          	add    $0x8,%rbx
  40218d:	49 89 de             	mov    %rbx,%r14
  402190:	49 89 0c 24          	mov    %rcx,(%r12)
  402194:	4d 89 e4             	mov    %r12,%r12
  402197:	49 83 c4 18          	add    $0x18,%r12
  40219b:	48 8b 0d b6 b6 21 00 	mov    0x21b6b6(%rip),%rcx        # 61d858 <globalObjptr+0x38>
  4021a2:	48 89 cb             	mov    %rcx,%rbx
  4021a5:	49 c7 c2 01 00 00 00 	mov    $0x1,%r10
  4021ac:	48 83 c5 08          	add    $0x8,%rbp
  4021b0:	4c 8d 0d bd 00 00 00 	lea    0xbd(%rip),%r9        # 402274 <L_106>
  4021b7:	4c 89 4d f8          	mov    %r9,-0x8(%rbp)
  4021bb:	4d 89 56 08          	mov    %r10,0x8(%r14)
  4021bf:	49 89 1e             	mov    %rbx,(%r14)
  4021c2:	4c 89 35 87 b6 21 00 	mov    %r14,0x21b687(%rip)        # 61d850 <globalObjptr+0x30>
  4021c9:	89 25 1d b6 21 00    	mov    %esp,0x21b61d(%rip)        # 61d7ec <globalWord32+0xc>
  4021cf:	48 89 35 72 b6 21 00 	mov    %rsi,0x21b672(%rip)        # 61d848 <globalObjptr+0x28>
  4021d6:	44 89 2d 0b b6 21 00 	mov    %r13d,0x21b60b(%rip)        # 61d7e8 <globalWord32+0x8>
  4021dd:	4c 89 1d 5c b6 21 00 	mov    %r11,0x21b65c(%rip)        # 61d840 <globalObjptr+0x20>
  4021e4:	4c 89 3d 4d b6 21 00 	mov    %r15,0x21b64d(%rip)        # 61d838 <globalObjptr+0x18>
  4021eb:	e9 b0 00 00 00       	jmpq   4022a0 <main_0>

00000000004021f0 <L_100>:
  4021f0:	4c 8b 3d b1 be 21 00 	mov    0x21beb1(%rip),%r15        # 61e0a8 <c_stackP>
  4021f7:	4c 89 fc             	mov    %r15,%rsp
  4021fa:	41 bf 00 00 00 00    	mov    $0x0,%r15d
  402200:	45 89 fe             	mov    %r15d,%r14d
  402203:	4c 89 f2             	mov    %r14,%rdx
  402206:	4d 31 ff             	xor    %r15,%r15
  402209:	4c 89 fe             	mov    %r15,%rsi
  40220c:	4c 8d 3d ad b6 21 00 	lea    0x21b6ad(%rip),%r15        # 61d8c0 <gcState>
  402213:	4d 89 fe             	mov    %r15,%r14
  402216:	4c 89 f7             	mov    %r14,%rdi
  402219:	4d 31 ff             	xor    %r15,%r15
  40221c:	4c 89 f8             	mov    %r15,%rax
  40221f:	48 83 c5 08          	add    $0x8,%rbp
  402223:	4c 8d 3d 3a 00 00 00 	lea    0x3a(%rip),%r15        # 402264 <L_107>
  40222a:	4c 89 7d f8          	mov    %r15,-0x8(%rbp)
  40222e:	48 89 2d 9b b6 21 00 	mov    %rbp,0x21b69b(%rip)        # 61d8d0 <gcState+0x10>
  402235:	4c 89 25 84 b6 21 00 	mov    %r12,0x21b684(%rip)        # 61d8c0 <gcState>
  40223c:	e8 0f d0 00 00       	callq  40f250 <GC_collect>
  402241:	4c 8b 3d 78 b6 21 00 	mov    0x21b678(%rip),%r15        # 61d8c0 <gcState>
  402248:	4d 89 fc             	mov    %r15,%r12
  40224b:	4c 8b 3d 7e b6 21 00 	mov    0x21b67e(%rip),%r15        # 61d8d0 <gcState+0x10>
  402252:	4c 89 fd             	mov    %r15,%rbp
  402255:	eb 0d                	jmp    402264 <L_107>
  402257:	66 0f 1f 84 00 00 00 	nopw   0x0(%rax,%rax,1)
  40225e:	00 00 
  402260:	00 00                	add    %al,(%rax)
	...

0000000000402264 <L_107>:
  402264:	48 83 c5 f8          	add    $0xfffffffffffffff8,%rbp
  402268:	e9 ef fc ff ff       	jmpq   401f5c <L_102>
  40226d:	0f 1f 00             	nopl   (%rax)
  402270:	01 00                	add    %eax,(%rax)
	...

0000000000402274 <L_106>:
  402274:	48 83 c5 f8          	add    $0xfffffffffffffff8,%rbp
  402278:	4c 8b 3d 29 be 21 00 	mov    0x21be29(%rip),%r15        # 61e0a8 <c_stackP>
  40227f:	4c 89 fc             	mov    %r15,%rsp
  402282:	4c 8b 3d d7 b5 21 00 	mov    0x21b5d7(%rip),%r15        # 61d860 <globalObjptr+0x40>
  402289:	4d 89 fe             	mov    %r15,%r14
  40228c:	4c 89 f7             	mov    %r14,%rdi
  40228f:	4d 31 f6             	xor    %r14,%r14
  402292:	4c 89 f0             	mov    %r14,%rax
  402295:	e8 a6 1a 01 00       	callq  413d40 <MLton_bug>
  40229a:	66 0f 1f 44 00 00    	nopw   0x0(%rax,%rax,1)

00000000004022a0 <main_0>:
  4022a0:	48 39 2d 31 b6 21 00 	cmp    %rbp,0x21b631(%rip)        # 61d8d8 <gcState+0x18>
  4022a7:	73 5f                	jae    402308 <L_109>

00000000004022a9 <L_108>:
  4022a9:	48 8b 25 f8 bd 21 00 	mov    0x21bdf8(%rip),%rsp        # 61e0a8 <c_stackP>
  4022b0:	41 bf 00 00 00 00    	mov    $0x0,%r15d
  4022b6:	44 89 fa             	mov    %r15d,%edx
  4022b9:	48 31 f6             	xor    %rsi,%rsi
  4022bc:	4c 8d 3d fd b5 21 00 	lea    0x21b5fd(%rip),%r15        # 61d8c0 <gcState>
  4022c3:	4c 89 ff             	mov    %r15,%rdi
  4022c6:	48 31 c0             	xor    %rax,%rax
  4022c9:	48 83 c5 08          	add    $0x8,%rbp
  4022cd:	4c 8d 3d 30 00 00 00 	lea    0x30(%rip),%r15        # 402304 <L_177>
  4022d4:	4c 89 7d f8          	mov    %r15,-0x8(%rbp)
  4022d8:	48 89 2d f1 b5 21 00 	mov    %rbp,0x21b5f1(%rip)        # 61d8d0 <gcState+0x10>
  4022df:	4c 89 25 da b5 21 00 	mov    %r12,0x21b5da(%rip)        # 61d8c0 <gcState>
  4022e6:	e8 65 cf 00 00       	callq  40f250 <GC_collect>
  4022eb:	4c 8b 25 ce b5 21 00 	mov    0x21b5ce(%rip),%r12        # 61d8c0 <gcState>
  4022f2:	48 8b 2d d7 b5 21 00 	mov    0x21b5d7(%rip),%rbp        # 61d8d0 <gcState+0x10>
  4022f9:	eb 09                	jmp    402304 <L_177>
  4022fb:	0f 1f 44 00 00       	nopl   0x0(%rax,%rax,1)
  402300:	00 00                	add    %al,(%rax)
	...

0000000000402304 <L_177>:
  402304:	48 83 c5 f8          	add    $0xfffffffffffffff8,%rbp

0000000000402308 <L_109>:
  402308:	4c 8b 3d 11 b5 21 00 	mov    0x21b511(%rip),%r15        # 61d820 <globalObjptr>
  40230f:	4c 89 7d 00          	mov    %r15,0x0(%rbp)
  402313:	48 c7 45 08 01 00 00 	movq   $0x1,0x8(%rbp)
  40231a:	00 
  40231b:	49 bf 00 00 00 00 00 	movabs $0x4000000000000000,%r15
  402322:	00 00 40 
  402325:	4c 89 7d 10          	mov    %r15,0x10(%rbp)
  402329:	0f 1f 80 00 00 00 00 	nopl   0x0(%rax)

0000000000402330 <loop_28>:
  402330:	4c 39 25 91 b5 21 00 	cmp    %r12,0x21b591(%rip)        # 61d8c8 <gcState+0x8>
  402337:	0f 82 a3 08 00 00    	jb     402be0 <L_110>
  40233d:	0f 1f 00             	nopl   (%rax)

0000000000402340 <L_111>:
  402340:	4c 8b 7d 10          	mov    0x10(%rbp),%r15
  402344:	4d 85 ff             	test   %r15,%r15
  402347:	0f 84 93 01 00 00    	je     4024e0 <L_112>

000000000040234d <L_113>:
  40234d:	4c 8b 7d 08          	mov    0x8(%rbp),%r15
  402351:	49 ff c7             	inc    %r15
  402354:	70 3a                	jo     402390 <L_180>

0000000000402356 <L_114>:
  402356:	4c 89 7d 08          	mov    %r15,0x8(%rbp)
  40235a:	49 c7 04 24 1f 00 00 	movq   $0x1f,(%r12)
  402361:	00 
  402362:	4d 89 e7             	mov    %r12,%r15
  402365:	49 83 c7 08          	add    $0x8,%r15
  402369:	49 83 c4 10          	add    $0x10,%r12
  40236d:	4c 8b 75 00          	mov    0x0(%rbp),%r14
  402371:	4d 89 37             	mov    %r14,(%r15)
  402374:	4c 89 7d 00          	mov    %r15,0x0(%rbp)
  402378:	48 c7 45 10 00 00 00 	movq   $0x0,0x10(%rbp)
  40237f:	00 
  402380:	eb ae                	jmp    402330 <loop_28>
  402382:	66 66 66 66 66 2e 0f 	data32 data32 data32 data32 nopw %cs:0x0(%rax,%rax,1)
  402389:	1f 84 00 00 00 00 00 

0000000000402390 <L_180>:
  402390:	48 8b 25 11 bd 21 00 	mov    0x21bd11(%rip),%rsp        # 61e0a8 <c_stackP>
  402397:	48 8b 3d ca b4 21 00 	mov    0x21b4ca(%rip),%rdi        # 61d868 <globalObjptr+0x48>
  40239e:	48 31 c0             	xor    %rax,%rax
  4023a1:	48 83 c5 08          	add    $0x8,%rbp
  4023a5:	4c 8d 3d 38 00 00 00 	lea    0x38(%rip),%r15        # 4023e4 <L_115>
  4023ac:	4c 89 7d f8          	mov    %r15,-0x8(%rbp)
  4023b0:	48 89 2d 19 b5 21 00 	mov    %rbp,0x21b519(%rip)        # 61d8d0 <gcState+0x10>
  4023b7:	4c 89 25 02 b5 21 00 	mov    %r12,0x21b502(%rip)        # 61d8c0 <gcState>
  4023be:	e8 4d 1a 01 00       	callq  413e10 <Stdio_print>
  4023c3:	4c 8b 25 f6 b4 21 00 	mov    0x21b4f6(%rip),%r12        # 61d8c0 <gcState>
  4023ca:	48 8b 2d ff b4 21 00 	mov    0x21b4ff(%rip),%rbp        # 61d8d0 <gcState+0x10>
  4023d1:	eb 11                	jmp    4023e4 <L_115>
  4023d3:	66 66 66 66 2e 0f 1f 	data32 data32 data32 nopw %cs:0x0(%rax,%rax,1)
  4023da:	84 00 00 00 00 00 
  4023e0:	00 00                	add    %al,(%rax)
	...

00000000004023e4 <L_115>:
  4023e4:	48 83 c5 f8          	add    $0xfffffffffffffff8,%rbp
  4023e8:	48 8b 25 b9 bc 21 00 	mov    0x21bcb9(%rip),%rsp        # 61e0a8 <c_stackP>
  4023ef:	48 8b 3d 7a b4 21 00 	mov    0x21b47a(%rip),%rdi        # 61d870 <globalObjptr+0x50>
  4023f6:	48 31 c0             	xor    %rax,%rax
  4023f9:	48 83 c5 08          	add    $0x8,%rbp
  4023fd:	4c 8d 3d 30 00 00 00 	lea    0x30(%rip),%r15        # 402434 <L_116>
  402404:	4c 89 7d f8          	mov    %r15,-0x8(%rbp)
  402408:	48 89 2d c1 b4 21 00 	mov    %rbp,0x21b4c1(%rip)        # 61d8d0 <gcState+0x10>
  40240f:	4c 89 25 aa b4 21 00 	mov    %r12,0x21b4aa(%rip)        # 61d8c0 <gcState>
  402416:	e8 f5 19 01 00       	callq  413e10 <Stdio_print>
  40241b:	4c 8b 25 9e b4 21 00 	mov    0x21b49e(%rip),%r12        # 61d8c0 <gcState>
  402422:	48 8b 2d a7 b4 21 00 	mov    0x21b4a7(%rip),%rbp        # 61d8d0 <gcState+0x10>
  402429:	eb 09                	jmp    402434 <L_116>
  40242b:	0f 1f 44 00 00       	nopl   0x0(%rax,%rax,1)
  402430:	00 00                	add    %al,(%rax)
	...

0000000000402434 <L_116>:
  402434:	48 83 c5 f8          	add    $0xfffffffffffffff8,%rbp
  402438:	48 8b 25 69 bc 21 00 	mov    0x21bc69(%rip),%rsp        # 61e0a8 <c_stackP>
  40243f:	48 8b 3d 12 b4 21 00 	mov    0x21b412(%rip),%rdi        # 61d858 <globalObjptr+0x38>
  402446:	48 31 c0             	xor    %rax,%rax
  402449:	48 83 c5 08          	add    $0x8,%rbp
  40244d:	4c 8d 3d 30 00 00 00 	lea    0x30(%rip),%r15        # 402484 <L_117>
  402454:	4c 89 7d f8          	mov    %r15,-0x8(%rbp)
  402458:	48 89 2d 71 b4 21 00 	mov    %rbp,0x21b471(%rip)        # 61d8d0 <gcState+0x10>
  40245f:	4c 89 25 5a b4 21 00 	mov    %r12,0x21b45a(%rip)        # 61d8c0 <gcState>
  402466:	e8 a5 19 01 00       	callq  413e10 <Stdio_print>
  40246b:	4c 8b 25 4e b4 21 00 	mov    0x21b44e(%rip),%r12        # 61d8c0 <gcState>
  402472:	48 8b 2d 57 b4 21 00 	mov    0x21b457(%rip),%rbp        # 61d8d0 <gcState+0x10>
  402479:	eb 09                	jmp    402484 <L_117>
  40247b:	0f 1f 44 00 00       	nopl   0x0(%rax,%rax,1)
  402480:	00 00                	add    %al,(%rax)
	...

0000000000402484 <L_117>:
  402484:	48 83 c5 f8          	add    $0xfffffffffffffff8,%rbp
  402488:	48 8b 25 19 bc 21 00 	mov    0x21bc19(%rip),%rsp        # 61e0a8 <c_stackP>
  40248f:	48 8b 3d e2 b3 21 00 	mov    0x21b3e2(%rip),%rdi        # 61d878 <globalObjptr+0x58>
  402496:	48 31 c0             	xor    %rax,%rax
  402499:	48 83 c5 08          	add    $0x8,%rbp
  40249d:	4c 8d 3d 30 00 00 00 	lea    0x30(%rip),%r15        # 4024d4 <L_118>
  4024a4:	4c 89 7d f8          	mov    %r15,-0x8(%rbp)
  4024a8:	48 89 2d 21 b4 21 00 	mov    %rbp,0x21b421(%rip)        # 61d8d0 <gcState+0x10>
  4024af:	4c 89 25 0a b4 21 00 	mov    %r12,0x21b40a(%rip)        # 61d8c0 <gcState>
  4024b6:	e8 85 18 01 00       	callq  413d40 <MLton_bug>
  4024bb:	4c 8b 25 fe b3 21 00 	mov    0x21b3fe(%rip),%r12        # 61d8c0 <gcState>
  4024c2:	48 8b 2d 07 b4 21 00 	mov    0x21b407(%rip),%rbp        # 61d8d0 <gcState+0x10>
  4024c9:	eb 09                	jmp    4024d4 <L_118>
  4024cb:	0f 1f 44 00 00       	nopl   0x0(%rax,%rax,1)
  4024d0:	00 00                	add    %al,(%rax)
	...

00000000004024d4 <L_118>:
  4024d4:	48 83 c5 f8          	add    $0xfffffffffffffff8,%rbp
  4024d8:	ff 65 f8             	jmpq   *-0x8(%rbp)
  4024db:	0f 1f 44 00 00       	nopl   0x0(%rax,%rax,1)

00000000004024e0 <L_112>:
  4024e0:	4c 8b 75 00          	mov    0x0(%rbp),%r14
  4024e4:	49 83 fe 01          	cmp    $0x1,%r14
  4024e8:	74 7e                	je     402568 <L_3>

00000000004024ea <L_119>:
  4024ea:	4d 8b 3e             	mov    (%r14),%r15
  4024ed:	0f 1f 00             	nopl   (%rax)

00000000004024f0 <loop_29>:
  4024f0:	49 83 ff 01          	cmp    $0x1,%r15
  4024f4:	74 0a                	je     402500 <L_122>

00000000004024f6 <L_121>:
  4024f6:	4d 8b 3f             	mov    (%r15),%r15
  4024f9:	eb f5                	jmp    4024f0 <loop_29>
  4024fb:	0f 1f 44 00 00       	nopl   0x0(%rax,%rax,1)

0000000000402500 <L_122>:
  402500:	4c 39 25 c1 b3 21 00 	cmp    %r12,0x21b3c1(%rip)        # 61d8c8 <gcState+0x8>
  402507:	73 5f                	jae    402568 <L_3>

0000000000402509 <L_123>:
  402509:	48 8b 25 98 bb 21 00 	mov    0x21bb98(%rip),%rsp        # 61e0a8 <c_stackP>
  402510:	41 bf 00 00 00 00    	mov    $0x0,%r15d
  402516:	44 89 fa             	mov    %r15d,%edx
  402519:	48 31 f6             	xor    %rsi,%rsi
  40251c:	4c 8d 3d 9d b3 21 00 	lea    0x21b39d(%rip),%r15        # 61d8c0 <gcState>
  402523:	4c 89 ff             	mov    %r15,%rdi
  402526:	48 31 c0             	xor    %rax,%rax
  402529:	48 83 c5 08          	add    $0x8,%rbp
  40252d:	4c 8d 3d 30 00 00 00 	lea    0x30(%rip),%r15        # 402564 <L_175>
  402534:	4c 89 7d f8          	mov    %r15,-0x8(%rbp)
  402538:	48 89 2d 91 b3 21 00 	mov    %rbp,0x21b391(%rip)        # 61d8d0 <gcState+0x10>
  40253f:	4c 89 25 7a b3 21 00 	mov    %r12,0x21b37a(%rip)        # 61d8c0 <gcState>
  402546:	e8 05 cd 00 00       	callq  40f250 <GC_collect>
  40254b:	4c 8b 25 6e b3 21 00 	mov    0x21b36e(%rip),%r12        # 61d8c0 <gcState>
  402552:	48 8b 2d 77 b3 21 00 	mov    0x21b377(%rip),%rbp        # 61d8d0 <gcState+0x10>
  402559:	eb 09                	jmp    402564 <L_175>
  40255b:	0f 1f 44 00 00       	nopl   0x0(%rax,%rax,1)
  402560:	00 00                	add    %al,(%rax)
	...

0000000000402564 <L_175>:
  402564:	48 83 c5 f8          	add    $0xfffffffffffffff8,%rbp

0000000000402568 <L_3>:
  402568:	49 c7 04 24 13 00 00 	movq   $0x13,(%r12)
  40256f:	00 
  402570:	4d 89 e7             	mov    %r12,%r15
  402573:	49 83 c7 08          	add    $0x8,%r15
  402577:	4c 89 7d 00          	mov    %r15,0x0(%rbp)
  40257b:	49 83 c4 10          	add    $0x10,%r12
  40257f:	49 c7 07 01 00 00 00 	movq   $0x1,(%r15)
  402586:	4c 8b 3d 93 b2 21 00 	mov    0x21b293(%rip),%r15        # 61d820 <globalObjptr>
  40258d:	4c 89 7d 08          	mov    %r15,0x8(%rbp)
  402591:	48 c7 45 10 01 00 00 	movq   $0x1,0x10(%rbp)
  402598:	00 
  402599:	49 bf ff ff ff ff ff 	movabs $0x7fffffffffffffff,%r15
  4025a0:	ff ff 7f 
  4025a3:	4c 89 7d 18          	mov    %r15,0x18(%rbp)

00000000004025a7 <loop_30>:
  4025a7:	4c 39 25 1a b3 21 00 	cmp    %r12,0x21b31a(%rip)        # 61d8c8 <gcState+0x8>
  4025ae:	0f 82 bc 05 00 00    	jb     402b70 <L_125>

00000000004025b4 <L_126>:
  4025b4:	4c 8b 7d 18          	mov    0x18(%rbp),%r15
  4025b8:	4d 85 ff             	test   %r15,%r15
  4025bb:	74 43                	je     402600 <L_127>

00000000004025bd <L_128>:
  4025bd:	4c 8b 7d 10          	mov    0x10(%rbp),%r15
  4025c1:	49 ff c7             	inc    %r15
  4025c4:	0f 80 c6 fd ff ff    	jo     402390 <L_180>

00000000004025ca <L_129>:
  4025ca:	4c 89 7d 10          	mov    %r15,0x10(%rbp)
  4025ce:	49 c7 04 24 1f 00 00 	movq   $0x1f,(%r12)
  4025d5:	00 
  4025d6:	4d 89 e7             	mov    %r12,%r15
  4025d9:	49 83 c7 08          	add    $0x8,%r15
  4025dd:	49 83 c4 10          	add    $0x10,%r12
  4025e1:	4c 8b 75 08          	mov    0x8(%rbp),%r14
  4025e5:	4d 89 37             	mov    %r14,(%r15)
  4025e8:	4c 89 7d 08          	mov    %r15,0x8(%rbp)
  4025ec:	48 c7 45 18 00 00 00 	movq   $0x0,0x18(%rbp)
  4025f3:	00 
  4025f4:	eb b1                	jmp    4025a7 <loop_30>
  4025f6:	66 2e 0f 1f 84 00 00 	nopw   %cs:0x0(%rax,%rax,1)
  4025fd:	00 00 00 

0000000000402600 <L_127>:
  402600:	4c 8b 75 08          	mov    0x8(%rbp),%r14
  402604:	49 83 fe 01          	cmp    $0x1,%r14
  402608:	74 16                	je     402620 <L_185>

000000000040260a <L_130>:
  40260a:	4d 8b 3e             	mov    (%r14),%r15
  40260d:	0f 1f 00             	nopl   (%rax)

0000000000402610 <loop_31>:
  402610:	49 83 ff 01          	cmp    $0x1,%r15
  402614:	74 0a                	je     402620 <L_185>

0000000000402616 <L_132>:
  402616:	4d 8b 3f             	mov    (%r15),%r15
  402619:	eb f5                	jmp    402610 <loop_31>
  40261b:	0f 1f 44 00 00       	nopl   0x0(%rax,%rax,1)

0000000000402620 <L_185>:
  402620:	4c 8b 3d f9 b1 21 00 	mov    0x21b1f9(%rip),%r15        # 61d820 <globalObjptr>
  402627:	4c 89 7d 08          	mov    %r15,0x8(%rbp)
  40262b:	48 c7 45 10 01 00 00 	movq   $0x1,0x10(%rbp)
  402632:	00 
  402633:	49 bf ff ff ff ff ff 	movabs $0x7fffffffffffffff,%r15
  40263a:	ff ff 7f 
  40263d:	4c 89 7d 18          	mov    %r15,0x18(%rbp)

0000000000402641 <loop_32>:
  402641:	4c 39 25 80 b2 21 00 	cmp    %r12,0x21b280(%rip)        # 61d8c8 <gcState+0x8>
  402648:	0f 82 b2 04 00 00    	jb     402b00 <L_134>
  40264e:	66 90                	xchg   %ax,%ax

0000000000402650 <L_135>:
  402650:	4c 8b 7d 18          	mov    0x18(%rbp),%r15
  402654:	4d 85 ff             	test   %r15,%r15
  402657:	74 47                	je     4026a0 <L_136>

0000000000402659 <L_137>:
  402659:	4c 8b 7d 10          	mov    0x10(%rbp),%r15
  40265d:	49 ff c7             	inc    %r15
  402660:	0f 80 2a fd ff ff    	jo     402390 <L_180>

0000000000402666 <L_138>:
  402666:	4c 89 7d 10          	mov    %r15,0x10(%rbp)
  40266a:	49 c7 04 24 1f 00 00 	movq   $0x1f,(%r12)
  402671:	00 
  402672:	4d 89 e7             	mov    %r12,%r15
  402675:	49 83 c7 08          	add    $0x8,%r15
  402679:	49 83 c4 10          	add    $0x10,%r12
  40267d:	4c 8b 75 08          	mov    0x8(%rbp),%r14
  402681:	4d 89 37             	mov    %r14,(%r15)
  402684:	4c 89 7d 08          	mov    %r15,0x8(%rbp)
  402688:	48 c7 45 18 00 00 00 	movq   $0x0,0x18(%rbp)
  40268f:	00 
  402690:	eb af                	jmp    402641 <loop_32>
  402692:	66 66 66 66 66 2e 0f 	data32 data32 data32 data32 nopw %cs:0x0(%rax,%rax,1)
  402699:	1f 84 00 00 00 00 00 

00000000004026a0 <L_136>:
  4026a0:	4c 8b 75 08          	mov    0x8(%rbp),%r14
  4026a4:	49 83 fe 01          	cmp    $0x1,%r14
  4026a8:	74 16                	je     4026c0 <L_188>

00000000004026aa <L_139>:
  4026aa:	4d 8b 3e             	mov    (%r14),%r15
  4026ad:	0f 1f 00             	nopl   (%rax)

00000000004026b0 <loop_33>:
  4026b0:	49 83 ff 01          	cmp    $0x1,%r15
  4026b4:	74 0a                	je     4026c0 <L_188>

00000000004026b6 <L_141>:
  4026b6:	4d 8b 3f             	mov    (%r15),%r15
  4026b9:	eb f5                	jmp    4026b0 <loop_33>
  4026bb:	0f 1f 44 00 00       	nopl   0x0(%rax,%rax,1)

00000000004026c0 <L_188>:
  4026c0:	4d 31 ff             	xor    %r15,%r15

00000000004026c3 <loop_34>:
  4026c3:	49 81 ff 00 01 00 00 	cmp    $0x100,%r15
  4026ca:	7d 14                	jge    4026e0 <L_144>

00000000004026cc <L_143>:
  4026cc:	49 ff c7             	inc    %r15
  4026cf:	eb f2                	jmp    4026c3 <loop_34>
  4026d1:	66 66 66 66 66 66 2e 	data32 data32 data32 data32 data32 nopw %cs:0x0(%rax,%rax,1)
  4026d8:	0f 1f 84 00 00 00 00 
  4026df:	00 

00000000004026e0 <L_144>:
  4026e0:	4d 31 ff             	xor    %r15,%r15

00000000004026e3 <loop_35>:
  4026e3:	49 81 ff 00 01 00 00 	cmp    $0x100,%r15
  4026ea:	7d 14                	jge    402700 <L_146>

00000000004026ec <L_145>:
  4026ec:	49 ff c7             	inc    %r15
  4026ef:	eb f2                	jmp    4026e3 <loop_35>
  4026f1:	66 66 66 66 66 66 2e 	data32 data32 data32 data32 data32 nopw %cs:0x0(%rax,%rax,1)
  4026f8:	0f 1f 84 00 00 00 00 
  4026ff:	00 

0000000000402700 <L_146>:
  402700:	4d 31 ff             	xor    %r15,%r15

0000000000402703 <loop_36>:
  402703:	49 81 ff 00 01 00 00 	cmp    $0x100,%r15
  40270a:	7d 14                	jge    402720 <L_148>

000000000040270c <L_147>:
  40270c:	49 ff c7             	inc    %r15
  40270f:	eb f2                	jmp    402703 <loop_36>
  402711:	66 66 66 66 66 66 2e 	data32 data32 data32 data32 data32 nopw %cs:0x0(%rax,%rax,1)
  402718:	0f 1f 84 00 00 00 00 
  40271f:	00 

0000000000402720 <L_148>:
  402720:	4d 31 ff             	xor    %r15,%r15

0000000000402723 <loop_37>:
  402723:	49 81 ff 00 01 00 00 	cmp    $0x100,%r15
  40272a:	0f 8d 80 00 00 00    	jge    4027b0 <L_150>

0000000000402730 <L_149>:
  402730:	44 88 fa             	mov    %r15b,%dl
  402733:	4c 8b 35 0e b1 21 00 	mov    0x21b10e(%rip),%r14        # 61d848 <globalObjptr+0x28>
  40273a:	66 41 bb 30 39       	mov    $0x3930,%r11w
  40273f:	4d 89 fd             	mov    %r15,%r13
  402742:	66 45 89 df          	mov    %r11w,%r15w

0000000000402746 <L_18>:
  402746:	66 45 89 fb          	mov    %r15w,%r11w
  40274a:	66 41 c1 eb 08       	shr    $0x8,%r11w
  40274f:	45 88 da             	mov    %r11b,%r10b
  402752:	45 88 fb             	mov    %r15b,%r11b
  402755:	44 38 da             	cmp    %r11b,%dl
  402758:	72 46                	jb     4027a0 <L_194>

000000000040275a <L_168>:
  40275a:	41 38 d2             	cmp    %dl,%r10b
  40275d:	73 31                	jae    402790 <L_193>
  40275f:	4c 89 2d 9a af 21 00 	mov    %r13,0x21af9a(%rip)        # 61d700 <localWord64>

0000000000402766 <L_20>:
  402766:	49 83 fe 01          	cmp    $0x1,%r14
  40276a:	74 14                	je     402780 <L_192>

000000000040276c <L_171>:
  40276c:	66 45 8b 3e          	mov    (%r14),%r15w
  402770:	4d 8b 76 08          	mov    0x8(%r14),%r14
  402774:	4c 8b 2d 85 af 21 00 	mov    0x21af85(%rip),%r13        # 61d700 <localWord64>
  40277b:	eb c9                	jmp    402746 <L_18>
  40277d:	0f 1f 00             	nopl   (%rax)

0000000000402780 <L_192>:
  402780:	4c 8b 3d 79 af 21 00 	mov    0x21af79(%rip),%r15        # 61d700 <localWord64>
  402787:	49 ff c7             	inc    %r15
  40278a:	eb 97                	jmp    402723 <loop_37>
  40278c:	0f 1f 40 00          	nopl   0x0(%rax)

0000000000402790 <L_193>:
  402790:	4c 89 2d 69 af 21 00 	mov    %r13,0x21af69(%rip)        # 61d700 <localWord64>
  402797:	eb e7                	jmp    402780 <L_192>
  402799:	0f 1f 80 00 00 00 00 	nopl   0x0(%rax)

00000000004027a0 <L_194>:
  4027a0:	4c 89 2d 59 af 21 00 	mov    %r13,0x21af59(%rip)        # 61d700 <localWord64>
  4027a7:	eb bd                	jmp    402766 <L_20>
  4027a9:	0f 1f 80 00 00 00 00 	nopl   0x0(%rax)

00000000004027b0 <L_150>:
  4027b0:	4d 31 ff             	xor    %r15,%r15

00000000004027b3 <loop_38>:
  4027b3:	49 81 ff 00 01 00 00 	cmp    $0x100,%r15
  4027ba:	7d 14                	jge    4027d0 <L_152>

00000000004027bc <L_151>:
  4027bc:	49 ff c7             	inc    %r15
  4027bf:	eb f2                	jmp    4027b3 <loop_38>
  4027c1:	66 66 66 66 66 66 2e 	data32 data32 data32 data32 data32 nopw %cs:0x0(%rax,%rax,1)
  4027c8:	0f 1f 84 00 00 00 00 
  4027cf:	00 

00000000004027d0 <L_152>:
  4027d0:	48 8b 25 d1 b8 21 00 	mov    0x21b8d1(%rip),%rsp        # 61e0a8 <c_stackP>
  4027d7:	48 c7 c1 11 00 00 00 	mov    $0x11,%rcx
  4027de:	48 c7 c2 21 00 00 00 	mov    $0x21,%rdx
  4027e5:	48 31 f6             	xor    %rsi,%rsi
  4027e8:	4c 8d 3d d1 b0 21 00 	lea    0x21b0d1(%rip),%r15        # 61d8c0 <gcState>
  4027ef:	4c 89 ff             	mov    %r15,%rdi
  4027f2:	48 31 c0             	xor    %rax,%rax
  4027f5:	48 83 c5 10          	add    $0x10,%rbp
  4027f9:	4c 8d 3d 34 00 00 00 	lea    0x34(%rip),%r15        # 402834 <L_153>
  402800:	4c 89 7d f8          	mov    %r15,-0x8(%rbp)
  402804:	48 89 2d c5 b0 21 00 	mov    %rbp,0x21b0c5(%rip)        # 61d8d0 <gcState+0x10>
  40280b:	4c 89 25 ae b0 21 00 	mov    %r12,0x21b0ae(%rip)        # 61d8c0 <gcState>
  402812:	e8 59 c6 00 00       	callq  40ee70 <GC_arrayAllocate>
  402817:	4c 8b 25 a2 b0 21 00 	mov    0x21b0a2(%rip),%r12        # 61d8c0 <gcState>
  40281e:	48 8b 2d ab b0 21 00 	mov    0x21b0ab(%rip),%rbp        # 61d8d0 <gcState+0x10>
  402825:	eb 0d                	jmp    402834 <L_153>
  402827:	66 0f 1f 84 00 00 00 	nopw   0x0(%rax,%rax,1)
  40282e:	00 00 
  402830:	02 00                	add    (%rax),%al
	...

0000000000402834 <L_153>:
  402834:	48 83 c5 f0          	add    $0xfffffffffffffff0,%rbp
  402838:	4d 31 ff             	xor    %r15,%r15
  40283b:	49 89 c6             	mov    %rax,%r14
  40283e:	66 90                	xchg   %ax,%ax

0000000000402840 <loop_39>:
  402840:	49 83 ff 21          	cmp    $0x21,%r15
  402844:	7d 0a                	jge    402850 <L_155>

0000000000402846 <L_154>:
  402846:	43 c6 04 3e 00       	movb   $0x0,(%r14,%r15,1)
  40284b:	49 ff c7             	inc    %r15
  40284e:	eb f0                	jmp    402840 <loop_39>

0000000000402850 <L_155>:
  402850:	48 8b 25 51 b8 21 00 	mov    0x21b851(%rip),%rsp        # 61e0a8 <c_stackP>
  402857:	48 c7 c1 11 00 00 00 	mov    $0x11,%rcx
  40285e:	48 c7 c2 41 00 00 00 	mov    $0x41,%rdx
  402865:	48 31 f6             	xor    %rsi,%rsi
  402868:	4c 8d 3d 51 b0 21 00 	lea    0x21b051(%rip),%r15        # 61d8c0 <gcState>
  40286f:	4c 89 ff             	mov    %r15,%rdi
  402872:	48 31 c0             	xor    %rax,%rax
  402875:	48 83 c5 10          	add    $0x10,%rbp
  402879:	4c 8d 3d 34 00 00 00 	lea    0x34(%rip),%r15        # 4028b4 <L_156>
  402880:	4c 89 7d f8          	mov    %r15,-0x8(%rbp)
  402884:	48 89 2d 45 b0 21 00 	mov    %rbp,0x21b045(%rip)        # 61d8d0 <gcState+0x10>
  40288b:	4c 89 25 2e b0 21 00 	mov    %r12,0x21b02e(%rip)        # 61d8c0 <gcState>
  402892:	e8 d9 c5 00 00       	callq  40ee70 <GC_arrayAllocate>
  402897:	4c 8b 25 22 b0 21 00 	mov    0x21b022(%rip),%r12        # 61d8c0 <gcState>
  40289e:	48 8b 2d 2b b0 21 00 	mov    0x21b02b(%rip),%rbp        # 61d8d0 <gcState+0x10>
  4028a5:	eb 0d                	jmp    4028b4 <L_156>
  4028a7:	66 0f 1f 84 00 00 00 	nopw   0x0(%rax,%rax,1)
  4028ae:	00 00 
  4028b0:	02 00                	add    (%rax),%al
	...

00000000004028b4 <L_156>:
  4028b4:	48 83 c5 f0          	add    $0xfffffffffffffff0,%rbp
  4028b8:	4d 31 ff             	xor    %r15,%r15
  4028bb:	49 89 c6             	mov    %rax,%r14
  4028be:	66 90                	xchg   %ax,%ax

00000000004028c0 <loop_40>:
  4028c0:	49 83 ff 41          	cmp    $0x41,%r15
  4028c4:	7d 0a                	jge    4028d0 <L_158>

00000000004028c6 <L_157>:
  4028c6:	43 c6 04 3e 00       	movb   $0x0,(%r14,%r15,1)
  4028cb:	49 ff c7             	inc    %r15
  4028ce:	eb f0                	jmp    4028c0 <loop_40>

00000000004028d0 <L_158>:
  4028d0:	4d 31 ff             	xor    %r15,%r15

00000000004028d3 <loop_41>:
  4028d3:	49 83 ff 01          	cmp    $0x1,%r15
  4028d7:	7d 07                	jge    4028e0 <L_160>

00000000004028d9 <L_159>:
  4028d9:	49 ff c7             	inc    %r15
  4028dc:	eb f5                	jmp    4028d3 <loop_41>
  4028de:	66 90                	xchg   %ax,%ax

00000000004028e0 <L_160>:
  4028e0:	4c 39 25 e1 af 21 00 	cmp    %r12,0x21afe1(%rip)        # 61d8c8 <gcState+0x8>
  4028e7:	73 5f                	jae    402948 <L_162>

00000000004028e9 <L_161>:
  4028e9:	48 8b 25 b8 b7 21 00 	mov    0x21b7b8(%rip),%rsp        # 61e0a8 <c_stackP>
  4028f0:	41 bf 00 00 00 00    	mov    $0x0,%r15d
  4028f6:	44 89 fa             	mov    %r15d,%edx
  4028f9:	48 31 f6             	xor    %rsi,%rsi
  4028fc:	4c 8d 3d bd af 21 00 	lea    0x21afbd(%rip),%r15        # 61d8c0 <gcState>
  402903:	4c 89 ff             	mov    %r15,%rdi
  402906:	48 31 c0             	xor    %rax,%rax
  402909:	48 83 c5 10          	add    $0x10,%rbp
  40290d:	4c 8d 3d 30 00 00 00 	lea    0x30(%rip),%r15        # 402944 <L_166>
  402914:	4c 89 7d f8          	mov    %r15,-0x8(%rbp)
  402918:	48 89 2d b1 af 21 00 	mov    %rbp,0x21afb1(%rip)        # 61d8d0 <gcState+0x10>
  40291f:	4c 89 25 9a af 21 00 	mov    %r12,0x21af9a(%rip)        # 61d8c0 <gcState>
  402926:	e8 25 c9 00 00       	callq  40f250 <GC_collect>
  40292b:	4c 8b 25 8e af 21 00 	mov    0x21af8e(%rip),%r12        # 61d8c0 <gcState>
  402932:	48 8b 2d 97 af 21 00 	mov    0x21af97(%rip),%rbp        # 61d8d0 <gcState+0x10>
  402939:	eb 09                	jmp    402944 <L_166>
  40293b:	0f 1f 44 00 00       	nopl   0x0(%rax,%rax,1)
  402940:	02 00                	add    (%rax),%al
	...

0000000000402944 <L_166>:
  402944:	48 83 c5 f0          	add    $0xfffffffffffffff0,%rbp

0000000000402948 <L_162>:
  402948:	4c 8b 7d 00          	mov    0x0(%rbp),%r15
  40294c:	4d 8b 37             	mov    (%r15),%r14
  40294f:	49 c7 04 24 17 00 00 	movq   $0x17,(%r12)
  402956:	00 
  402957:	4d 89 e5             	mov    %r12,%r13
  40295a:	49 83 c5 08          	add    $0x8,%r13
  40295e:	4d 89 75 08          	mov    %r14,0x8(%r13)
  402962:	49 83 c4 18          	add    $0x18,%r12
  402966:	41 b6 01             	mov    $0x1,%r14b
  402969:	45 0f b6 de          	movzbl %r14b,%r11d
  40296d:	45 89 5d 00          	mov    %r11d,0x0(%r13)
  402971:	41 c7 45 04 00 00 00 	movl   $0x0,0x4(%r13)
  402978:	00 
  402979:	4d 89 fe             	mov    %r15,%r14
  40297c:	49 c1 ee 08          	shr    $0x8,%r14
  402980:	4c 8b 1d 01 b3 21 00 	mov    0x21b301(%rip),%r11        # 61dc88 <gcState+0x3c8>
  402987:	43 c6 04 33 01       	movb   $0x1,(%r11,%r14,1)
  40298c:	4d 89 ee             	mov    %r13,%r14
  40298f:	4d 89 2f             	mov    %r13,(%r15)
  402992:	49 c7 04 24 17 00 00 	movq   $0x17,(%r12)
  402999:	00 
  40299a:	4d 89 e5             	mov    %r12,%r13
  40299d:	49 83 c5 08          	add    $0x8,%r13
  4029a1:	4d 89 75 08          	mov    %r14,0x8(%r13)
  4029a5:	49 83 c4 18          	add    $0x18,%r12
  4029a9:	41 b6 02             	mov    $0x2,%r14b
  4029ac:	45 0f b6 d6          	movzbl %r14b,%r10d
  4029b0:	45 89 55 00          	mov    %r10d,0x0(%r13)
  4029b4:	41 c7 45 04 00 00 00 	movl   $0x0,0x4(%r13)
  4029bb:	00 
  4029bc:	4d 89 fe             	mov    %r15,%r14
  4029bf:	49 c1 ee 08          	shr    $0x8,%r14
  4029c3:	43 c6 04 33 01       	movb   $0x1,(%r11,%r14,1)
  4029c8:	4d 89 ee             	mov    %r13,%r14
  4029cb:	4d 89 2f             	mov    %r13,(%r15)
  4029ce:	49 c7 04 24 17 00 00 	movq   $0x17,(%r12)
  4029d5:	00 
  4029d6:	4d 89 e5             	mov    %r12,%r13
  4029d9:	49 83 c5 08          	add    $0x8,%r13
  4029dd:	4d 89 75 08          	mov    %r14,0x8(%r13)
  4029e1:	49 83 c4 18          	add    $0x18,%r12
  4029e5:	41 b6 00             	mov    $0x0,%r14b
  4029e8:	45 0f b6 d6          	movzbl %r14b,%r10d
  4029ec:	45 89 55 00          	mov    %r10d,0x0(%r13)
  4029f0:	41 c7 45 04 00 00 00 	movl   $0x0,0x4(%r13)
  4029f7:	00 
  4029f8:	4d 89 fe             	mov    %r15,%r14
  4029fb:	49 c1 ee 08          	shr    $0x8,%r14
  4029ff:	43 c6 04 33 01       	movb   $0x1,(%r11,%r14,1)
  402a04:	4d 89 2f             	mov    %r13,(%r15)
  402a07:	49 c7 04 24 15 00 00 	movq   $0x15,(%r12)
  402a0e:	00 
  402a0f:	4d 89 e7             	mov    %r12,%r15
  402a12:	49 83 c7 08          	add    $0x8,%r15
  402a16:	49 83 c4 10          	add    $0x10,%r12
  402a1a:	45 31 f6             	xor    %r14d,%r14d
  402a1d:	41 c7 47 04 00 00 00 	movl   $0x0,0x4(%r15)
  402a24:	00 
  402a25:	45 85 f6             	test   %r14d,%r14d
  402a28:	45 89 37             	mov    %r14d,(%r15)
  402a2b:	75 43                	jne    402a70 <L_163>

0000000000402a2d <L_164>:
  402a2d:	41 c7 07 01 00 00 00 	movl   $0x1,(%r15)
  402a34:	48 8b 25 6d b6 21 00 	mov    0x21b66d(%rip),%rsp        # 61e0a8 <c_stackP>
  402a3b:	41 bf 00 00 00 00    	mov    $0x0,%r15d
  402a41:	44 89 fe             	mov    %r15d,%esi
  402a44:	4c 8d 3d 75 ae 21 00 	lea    0x21ae75(%rip),%r15        # 61d8c0 <gcState>
  402a4b:	4c 89 ff             	mov    %r15,%rdi
  402a4e:	48 31 c0             	xor    %rax,%rax
  402a51:	4c 89 25 68 ae 21 00 	mov    %r12,0x21ae68(%rip)        # 61d8c0 <gcState>
  402a58:	48 89 2d 71 ae 21 00 	mov    %rbp,0x21ae71(%rip)        # 61d8d0 <gcState+0x10>
  402a5f:	e8 6c 02 00 00       	callq  402cd0 <MLton_halt>
  402a64:	66 66 66 2e 0f 1f 84 	data32 data32 nopw %cs:0x0(%rax,%rax,1)
  402a6b:	00 00 00 00 00 

0000000000402a70 <L_163>:
  402a70:	48 8b 25 31 b6 21 00 	mov    0x21b631(%rip),%rsp        # 61e0a8 <c_stackP>
  402a77:	48 8b 3d 02 ae 21 00 	mov    0x21ae02(%rip),%rdi        # 61d880 <globalObjptr+0x60>
  402a7e:	48 31 c0             	xor    %rax,%rax
  402a81:	48 83 c5 08          	add    $0x8,%rbp
  402a85:	4c 8d 3d 38 00 00 00 	lea    0x38(%rip),%r15        # 402ac4 <L_165>
  402a8c:	4c 89 7d f8          	mov    %r15,-0x8(%rbp)
  402a90:	48 89 2d 39 ae 21 00 	mov    %rbp,0x21ae39(%rip)        # 61d8d0 <gcState+0x10>
  402a97:	4c 89 25 22 ae 21 00 	mov    %r12,0x21ae22(%rip)        # 61d8c0 <gcState>
  402a9e:	e8 6d 13 01 00       	callq  413e10 <Stdio_print>
  402aa3:	4c 8b 25 16 ae 21 00 	mov    0x21ae16(%rip),%r12        # 61d8c0 <gcState>
  402aaa:	48 8b 2d 1f ae 21 00 	mov    0x21ae1f(%rip),%rbp        # 61d8d0 <gcState+0x10>
  402ab1:	eb 11                	jmp    402ac4 <L_165>
  402ab3:	66 66 66 66 2e 0f 1f 	data32 data32 data32 nopw %cs:0x0(%rax,%rax,1)
  402aba:	84 00 00 00 00 00 
  402ac0:	00 00                	add    %al,(%rax)
	...

0000000000402ac4 <L_165>:
  402ac4:	48 83 c5 f8          	add    $0xfffffffffffffff8,%rbp
  402ac8:	48 89 2d 01 ae 21 00 	mov    %rbp,0x21ae01(%rip)        # 61d8d0 <gcState+0x10>
  402acf:	48 8b 25 d2 b5 21 00 	mov    0x21b5d2(%rip),%rsp        # 61e0a8 <c_stackP>
  402ad6:	41 bf 01 00 00 00    	mov    $0x1,%r15d
  402adc:	44 89 fe             	mov    %r15d,%esi
  402adf:	4c 8d 3d da ad 21 00 	lea    0x21adda(%rip),%r15        # 61d8c0 <gcState>
  402ae6:	4c 89 ff             	mov    %r15,%rdi
  402ae9:	48 31 c0             	xor    %rax,%rax
  402aec:	4c 89 25 cd ad 21 00 	mov    %r12,0x21adcd(%rip)        # 61d8c0 <gcState>
  402af3:	e8 d8 01 00 00       	callq  402cd0 <MLton_halt>
  402af8:	0f 1f 84 00 00 00 00 	nopl   0x0(%rax,%rax,1)
  402aff:	00 

0000000000402b00 <L_134>:
  402b00:	48 8b 25 a1 b5 21 00 	mov    0x21b5a1(%rip),%rsp        # 61e0a8 <c_stackP>
  402b07:	41 bf 00 00 00 00    	mov    $0x0,%r15d
  402b0d:	44 89 fa             	mov    %r15d,%edx
  402b10:	48 31 f6             	xor    %rsi,%rsi
  402b13:	4c 8d 3d a6 ad 21 00 	lea    0x21ada6(%rip),%r15        # 61d8c0 <gcState>
  402b1a:	4c 89 ff             	mov    %r15,%rdi
  402b1d:	48 31 c0             	xor    %rax,%rax
  402b20:	48 83 c5 28          	add    $0x28,%rbp
  402b24:	4c 8d 3d 39 00 00 00 	lea    0x39(%rip),%r15        # 402b64 <L_173>
  402b2b:	4c 89 7d f8          	mov    %r15,-0x8(%rbp)
  402b2f:	48 89 2d 9a ad 21 00 	mov    %rbp,0x21ad9a(%rip)        # 61d8d0 <gcState+0x10>
  402b36:	4c 89 25 83 ad 21 00 	mov    %r12,0x21ad83(%rip)        # 61d8c0 <gcState>
  402b3d:	e8 0e c7 00 00       	callq  40f250 <GC_collect>
  402b42:	4c 8b 25 77 ad 21 00 	mov    0x21ad77(%rip),%r12        # 61d8c0 <gcState>
  402b49:	48 8b 2d 80 ad 21 00 	mov    0x21ad80(%rip),%rbp        # 61d8d0 <gcState+0x10>
  402b50:	eb 12                	jmp    402b64 <L_173>
  402b52:	66 66 66 66 66 2e 0f 	data32 data32 data32 data32 nopw %cs:0x0(%rax,%rax,1)
  402b59:	1f 84 00 00 00 00 00 
  402b60:	03 00                	add    (%rax),%eax
	...

0000000000402b64 <L_173>:
  402b64:	48 83 c5 d8          	add    $0xffffffffffffffd8,%rbp
  402b68:	e9 e3 fa ff ff       	jmpq   402650 <L_135>
  402b6d:	0f 1f 00             	nopl   (%rax)

0000000000402b70 <L_125>:
  402b70:	48 8b 25 31 b5 21 00 	mov    0x21b531(%rip),%rsp        # 61e0a8 <c_stackP>
  402b77:	41 bf 00 00 00 00    	mov    $0x0,%r15d
  402b7d:	44 89 fa             	mov    %r15d,%edx
  402b80:	48 31 f6             	xor    %rsi,%rsi
  402b83:	4c 8d 3d 36 ad 21 00 	lea    0x21ad36(%rip),%r15        # 61d8c0 <gcState>
  402b8a:	4c 89 ff             	mov    %r15,%rdi
  402b8d:	48 31 c0             	xor    %rax,%rax
  402b90:	48 83 c5 28          	add    $0x28,%rbp
  402b94:	4c 8d 3d 39 00 00 00 	lea    0x39(%rip),%r15        # 402bd4 <L_174>
  402b9b:	4c 89 7d f8          	mov    %r15,-0x8(%rbp)
  402b9f:	48 89 2d 2a ad 21 00 	mov    %rbp,0x21ad2a(%rip)        # 61d8d0 <gcState+0x10>
  402ba6:	4c 89 25 13 ad 21 00 	mov    %r12,0x21ad13(%rip)        # 61d8c0 <gcState>
  402bad:	e8 9e c6 00 00       	callq  40f250 <GC_collect>
  402bb2:	4c 8b 25 07 ad 21 00 	mov    0x21ad07(%rip),%r12        # 61d8c0 <gcState>
  402bb9:	48 8b 2d 10 ad 21 00 	mov    0x21ad10(%rip),%rbp        # 61d8d0 <gcState+0x10>
  402bc0:	eb 12                	jmp    402bd4 <L_174>
  402bc2:	66 66 66 66 66 2e 0f 	data32 data32 data32 data32 nopw %cs:0x0(%rax,%rax,1)
  402bc9:	1f 84 00 00 00 00 00 
  402bd0:	03 00                	add    (%rax),%eax
	...

0000000000402bd4 <L_174>:
  402bd4:	48 83 c5 d8          	add    $0xffffffffffffffd8,%rbp
  402bd8:	e9 d7 f9 ff ff       	jmpq   4025b4 <L_126>
  402bdd:	0f 1f 00             	nopl   (%rax)

0000000000402be0 <L_110>:
  402be0:	48 8b 25 c1 b4 21 00 	mov    0x21b4c1(%rip),%rsp        # 61e0a8 <c_stackP>
  402be7:	41 bf 00 00 00 00    	mov    $0x0,%r15d
  402bed:	44 89 fa             	mov    %r15d,%edx
  402bf0:	48 31 f6             	xor    %rsi,%rsi
  402bf3:	4c 8d 3d c6 ac 21 00 	lea    0x21acc6(%rip),%r15        # 61d8c0 <gcState>
  402bfa:	4c 89 ff             	mov    %r15,%rdi
  402bfd:	48 31 c0             	xor    %rax,%rax
  402c00:	48 83 c5 20          	add    $0x20,%rbp
  402c04:	4c 8d 3d 39 00 00 00 	lea    0x39(%rip),%r15        # 402c44 <L_176>
  402c0b:	4c 89 7d f8          	mov    %r15,-0x8(%rbp)
  402c0f:	48 89 2d ba ac 21 00 	mov    %rbp,0x21acba(%rip)        # 61d8d0 <gcState+0x10>
  402c16:	4c 89 25 a3 ac 21 00 	mov    %r12,0x21aca3(%rip)        # 61d8c0 <gcState>
  402c1d:	e8 2e c6 00 00       	callq  40f250 <GC_collect>
  402c22:	4c 8b 25 97 ac 21 00 	mov    0x21ac97(%rip),%r12        # 61d8c0 <gcState>
  402c29:	48 8b 2d a0 ac 21 00 	mov    0x21aca0(%rip),%rbp        # 61d8d0 <gcState+0x10>
  402c30:	eb 12                	jmp    402c44 <L_176>
  402c32:	66 66 66 66 66 2e 0f 	data32 data32 data32 data32 nopw %cs:0x0(%rax,%rax,1)
  402c39:	1f 84 00 00 00 00 00 
  402c40:	04 00                	add    $0x0,%al
	...

0000000000402c44 <L_176>:
  402c44:	48 83 c5 e0          	add    $0xffffffffffffffe0,%rbp
  402c48:	e9 f3 f6 ff ff       	jmpq   402340 <L_111>
  402c4d:	0f 1f 00             	nopl   (%rax)

0000000000402c50 <addps>:
  402c50:	48 89 d0             	mov    %rdx,%rax
  402c53:	0f 10 0f             	movups (%rdi),%xmm1
  402c56:	0f 10 06             	movups (%rsi),%xmm0
  402c59:	0f 58 c1             	addps  %xmm1,%xmm0
  402c5c:	0f 11 02             	movups %xmm0,(%rdx)
  402c5f:	c3                   	retq   

0000000000402c60 <subps>:
  402c60:	48 89 d0             	mov    %rdx,%rax
  402c63:	0f 10 07             	movups (%rdi),%xmm0
  402c66:	0f 10 0e             	movups (%rsi),%xmm1
  402c69:	0f 5c c1             	subps  %xmm1,%xmm0
  402c6c:	0f 11 02             	movups %xmm0,(%rdx)
  402c6f:	c3                   	retq   

0000000000402c70 <GC_setCygwinUseMmap>:
  402c70:	40 0f b6 ff          	movzbl %dil,%edi
  402c74:	89 3d 26 aa 21 00    	mov    %edi,0x21aa26(%rip)        # 61d6a0 <MLton_Platform_CygwinUseMmap>
  402c7a:	c3                   	retq   
  402c7b:	0f 1f 44 00 00       	nopl   0x0(%rax,%rax,1)

0000000000402c80 <MLton_init>:
  402c80:	55                   	push   %rbp
  402c81:	89 fd                	mov    %edi,%ebp
  402c83:	48 89 d7             	mov    %rdx,%rdi
  402c86:	48 89 f2             	mov    %rsi,%rdx
  402c89:	53                   	push   %rbx
  402c8a:	48 89 f3             	mov    %rsi,%rbx
  402c8d:	89 ee                	mov    %ebp,%esi
  402c8f:	48 83 ec 08          	sub    $0x8,%rsp
  402c93:	48 8b 05 4e aa 21 00 	mov    0x21aa4e(%rip),%rax        # 61d6e8 <__environ@@GLIBC_2.2.5>
  402c9a:	48 89 05 7f b6 21 00 	mov    %rax,0x21b67f(%rip)        # 61e320 <Posix_ProcEnv_environ>
  402ca1:	e8 8a ea 00 00       	callq  411730 <GC_init>
  402ca6:	48 8b 13             	mov    (%rbx),%rdx
  402ca9:	29 c5                	sub    %eax,%ebp
  402cab:	48 98                	cltq   
  402cad:	48 8d 04 c3          	lea    (%rbx,%rax,8),%rax
  402cb1:	89 2d 81 b6 21 00    	mov    %ebp,0x21b681(%rip)        # 61e338 <CommandLine_argc>
  402cb7:	48 89 15 6a b6 21 00 	mov    %rdx,0x21b66a(%rip)        # 61e328 <CommandLine_commandName>
  402cbe:	48 89 05 6b b6 21 00 	mov    %rax,0x21b66b(%rip)        # 61e330 <CommandLine_argv>
  402cc5:	48 83 c4 08          	add    $0x8,%rsp
  402cc9:	5b                   	pop    %rbx
  402cca:	5d                   	pop    %rbp
  402ccb:	c3                   	retq   
  402ccc:	0f 1f 40 00          	nopl   0x0(%rax)

0000000000402cd0 <MLton_halt>:
  402cd0:	53                   	push   %rbx
  402cd1:	89 f3                	mov    %esi,%ebx
  402cd3:	e8 98 7f 00 00       	callq  40ac70 <GC_done>
  402cd8:	89 df                	mov    %ebx,%edi
  402cda:	e8 51 eb ff ff       	callq  401830 <exit@plt>
  402cdf:	90                   	nop

0000000000402ce0 <MLton_heapCheckTooLarge>:
  402ce0:	48 83 ec 08          	sub    $0x8,%rsp
  402ce4:	48 c7 c6 ff ff ff ff 	mov    $0xffffffffffffffff,%rsi
  402ceb:	bf c0 84 41 00       	mov    $0x4184c0,%edi
  402cf0:	31 c0                	xor    %eax,%eax
  402cf2:	e8 29 11 01 00       	callq  413e20 <die>
  402cf7:	66 0f 1f 84 00 00 00 	nopw   0x0(%rax,%rax,1)
  402cfe:	00 00 

0000000000402d00 <numStackFramesAux>:
  402d00:	83 47 50 01          	addl   $0x1,0x50(%rdi)
  402d04:	c3                   	retq   
  402d05:	66 66 2e 0f 1f 84 00 	data32 nopw %cs:0x0(%rax,%rax,1)
  402d0c:	00 00 00 00 

0000000000402d10 <callStackAux>:
  402d10:	8b 57 50             	mov    0x50(%rdi),%edx
  402d13:	48 8b 47 58          	mov    0x58(%rdi),%rax
  402d17:	89 34 90             	mov    %esi,(%rax,%rdx,4)
  402d1a:	83 47 50 01          	addl   $0x1,0x50(%rdi)
  402d1e:	c3                   	retq   
  402d1f:	90                   	nop

0000000000402d20 <markIntergenerationalPointer>:
  402d20:	80 bf 70 04 00 00 00 	cmpb   $0x0,0x470(%rdi)
  402d27:	74 2e                	je     402d57 <markIntergenerationalPointer+0x37>
  402d29:	40 f6 c6 03          	test   $0x3,%sil
  402d2d:	74 31                	je     402d60 <markIntergenerationalPointer+0x40>
  402d2f:	48 8b 06             	mov    (%rsi),%rax
  402d32:	a8 03                	test   $0x3,%al
  402d34:	75 12                	jne    402d48 <markIntergenerationalPointer+0x28>
  402d36:	48 3b 87 00 04 00 00 	cmp    0x400(%rdi),%rax
  402d3d:	72 18                	jb     402d57 <markIntergenerationalPointer+0x37>
  402d3f:	48 3b 07             	cmp    (%rdi),%rax
  402d42:	73 3c                	jae    402d80 <markIntergenerationalPointer+0x60>
  402d44:	0f 1f 40 00          	nopl   0x0(%rax)
  402d48:	48 8b 87 c8 03 00 00 	mov    0x3c8(%rdi),%rax
  402d4f:	48 c1 ee 08          	shr    $0x8,%rsi
  402d53:	c6 04 30 01          	movb   $0x1,(%rax,%rsi,1)
  402d57:	f3 c3                	repz retq 
  402d59:	0f 1f 80 00 00 00 00 	nopl   0x0(%rax)
  402d60:	48 8b 87 18 04 00 00 	mov    0x418(%rdi),%rax
  402d67:	48 39 c6             	cmp    %rax,%rsi
  402d6a:	72 eb                	jb     402d57 <markIntergenerationalPointer+0x37>
  402d6c:	48 03 87 08 04 00 00 	add    0x408(%rdi),%rax
  402d73:	48 39 c6             	cmp    %rax,%rsi
  402d76:	72 b7                	jb     402d2f <markIntergenerationalPointer+0xf>
  402d78:	f3 c3                	repz retq 
  402d7a:	66 0f 1f 44 00 00    	nopw   0x0(%rax,%rax,1)
  402d80:	f3 c3                	repz retq 
  402d82:	66 66 66 66 66 2e 0f 	data32 data32 data32 data32 nopw %cs:0x0(%rax,%rax,1)
  402d89:	1f 84 00 00 00 00 00 

0000000000402d90 <threadInternalObjptr>:
  402d90:	48 8b 06             	mov    (%rsi),%rax
  402d93:	48 8b 50 f8          	mov    -0x8(%rax),%rdx
  402d97:	48 89 16             	mov    %rdx,(%rsi)
  402d9a:	48 89 70 f8          	mov    %rsi,-0x8(%rax)
  402d9e:	c3                   	retq   
  402d9f:	90                   	nop

0000000000402da0 <compareSourceLabels>:
  402da0:	48 8b 06             	mov    (%rsi),%rax
  402da3:	31 d2                	xor    %edx,%edx
  402da5:	48 39 07             	cmp    %rax,(%rdi)
  402da8:	b8 ff ff ff ff       	mov    $0xffffffff,%eax
  402dad:	0f 95 c2             	setne  %dl
  402db0:	0f 43 c2             	cmovae %edx,%eax
  402db3:	c3                   	retq   
  402db4:	66 66 66 2e 0f 1f 84 	data32 data32 nopw %cs:0x0(%rax,%rax,1)
  402dbb:	00 00 00 00 00 

0000000000402dc0 <translateObjptr>:
  402dc0:	48 8b 06             	mov    (%rsi),%rax
  402dc3:	48 2b 87 78 06 00 00 	sub    0x678(%rdi),%rax
  402dca:	48 03 87 80 06 00 00 	add    0x680(%rdi),%rax
  402dd1:	48 89 06             	mov    %rax,(%rsi)
  402dd4:	c3                   	retq   
  402dd5:	66 66 2e 0f 1f 84 00 	data32 nopw %cs:0x0(%rax,%rax,1)
  402ddc:	00 00 00 00 

0000000000402de0 <printBytesHashConsedMessage>:
  402de0:	55                   	push   %rbp
  402de1:	48 89 f5             	mov    %rsi,%rbp
  402de4:	53                   	push   %rbx
  402de5:	48 89 fb             	mov    %rdi,%rbx
  402de8:	48 83 ec 08          	sub    $0x8,%rsp
  402dec:	e8 2f 13 01 00       	callq  414120 <uintmaxToCommaString>
  402df1:	48 85 db             	test   %rbx,%rbx
  402df4:	78 3a                	js     402e30 <printBytesHashConsedMessage+0x50>
  402df6:	48 85 ed             	test   %rbp,%rbp
  402df9:	f2 48 0f 2a c3       	cvtsi2sd %rbx,%xmm0
  402dfe:	78 4a                	js     402e4a <printBytesHashConsedMessage+0x6a>
  402e00:	f2 48 0f 2a cd       	cvtsi2sd %rbp,%xmm1
  402e05:	f2 0f 5e c1          	divsd  %xmm1,%xmm0
  402e09:	48 8b 3d e0 a8 21 00 	mov    0x21a8e0(%rip),%rdi        # 61d6f0 <stderr@@GLIBC_2.2.5>
  402e10:	48 89 c2             	mov    %rax,%rdx
  402e13:	be 00 85 41 00       	mov    $0x418500,%esi
  402e18:	b8 01 00 00 00       	mov    $0x1,%eax
  402e1d:	f2 0f 59 05 3b 72 01 	mulsd  0x1723b(%rip),%xmm0        # 41a060 <_IO_stdin_used+0x1c40>
  402e24:	00 
  402e25:	48 83 c4 08          	add    $0x8,%rsp
  402e29:	5b                   	pop    %rbx
  402e2a:	5d                   	pop    %rbp
  402e2b:	e9 40 e8 ff ff       	jmpq   401670 <fprintf@plt>
  402e30:	48 89 da             	mov    %rbx,%rdx
  402e33:	83 e3 01             	and    $0x1,%ebx
  402e36:	48 d1 ea             	shr    %rdx
  402e39:	48 09 da             	or     %rbx,%rdx
  402e3c:	48 85 ed             	test   %rbp,%rbp
  402e3f:	f2 48 0f 2a c2       	cvtsi2sd %rdx,%xmm0
  402e44:	f2 0f 58 c0          	addsd  %xmm0,%xmm0
  402e48:	79 b6                	jns    402e00 <printBytesHashConsedMessage+0x20>
  402e4a:	48 89 ea             	mov    %rbp,%rdx
  402e4d:	83 e5 01             	and    $0x1,%ebp
  402e50:	48 d1 ea             	shr    %rdx
  402e53:	48 09 ea             	or     %rbp,%rdx
  402e56:	f2 48 0f 2a ca       	cvtsi2sd %rdx,%xmm1
  402e5b:	f2 0f 58 c9          	addsd  %xmm1,%xmm1
  402e5f:	eb a4                	jmp    402e05 <printBytesHashConsedMessage+0x25>
  402e61:	66 66 66 66 66 66 2e 	data32 data32 data32 data32 data32 nopw %cs:0x0(%rax,%rax,1)
  402e68:	0f 1f 84 00 00 00 00 
  402e6f:	00 

0000000000402e70 <stopTiming>:
  402e70:	55                   	push   %rbp
  402e71:	48 89 fd             	mov    %rdi,%rbp
  402e74:	31 ff                	xor    %edi,%edi
  402e76:	53                   	push   %rbx
  402e77:	48 89 f3             	mov    %rsi,%rbx
  402e7a:	48 81 ec 98 00 00 00 	sub    $0x98,%rsp
  402e81:	48 89 e6             	mov    %rsp,%rsi
  402e84:	e8 57 e9 ff ff       	callq  4017e0 <getrusage@plt>
  402e89:	48 8b 44 24 08       	mov    0x8(%rsp),%rax
  402e8e:	48 be db 34 b6 d7 82 	movabs $0x431bde82d7b634db,%rsi
  402e95:	de 1b 43 
  402e98:	48 8b 3c 24          	mov    (%rsp),%rdi
  402e9c:	48 2b 7d 00          	sub    0x0(%rbp),%rdi
  402ea0:	48 8d 88 40 42 0f 00 	lea    0xf4240(%rax),%rcx
  402ea7:	48 2b 4d 08          	sub    0x8(%rbp),%rcx
  402eab:	48 89 c8             	mov    %rcx,%rax
  402eae:	48 f7 ee             	imul   %rsi
  402eb1:	48 89 c8             	mov    %rcx,%rax
  402eb4:	48 c1 f8 3f          	sar    $0x3f,%rax
  402eb8:	48 c1 fa 12          	sar    $0x12,%rdx
  402ebc:	48 29 c2             	sub    %rax,%rdx
  402ebf:	48 8b 44 24 18       	mov    0x18(%rsp),%rax
  402ec4:	4c 8d 44 17 ff       	lea    -0x1(%rdi,%rdx,1),%r8
  402ec9:	48 8b 7c 24 10       	mov    0x10(%rsp),%rdi
  402ece:	48 2b 7d 10          	sub    0x10(%rbp),%rdi
  402ed2:	48 69 d2 40 42 0f 00 	imul   $0xf4240,%rdx,%rdx
  402ed9:	4d 89 c3             	mov    %r8,%r11
  402edc:	4c 03 1b             	add    (%rbx),%r11
  402edf:	48 29 d1             	sub    %rdx,%rcx
  402ee2:	49 89 c9             	mov    %rcx,%r9
  402ee5:	48 8d 88 40 42 0f 00 	lea    0xf4240(%rax),%rcx
  402eec:	48 2b 4d 18          	sub    0x18(%rbp),%rcx
  402ef0:	48 89 c8             	mov    %rcx,%rax
  402ef3:	48 f7 ee             	imul   %rsi
  402ef6:	48 89 c8             	mov    %rcx,%rax
  402ef9:	48 c1 f8 3f          	sar    $0x3f,%rax
  402efd:	48 c1 fa 12          	sar    $0x12,%rdx
  402f01:	48 29 c2             	sub    %rax,%rdx
  402f04:	4c 8d 54 17 ff       	lea    -0x1(%rdi,%rdx,1),%r10
  402f09:	4c 89 cf             	mov    %r9,%rdi
  402f0c:	48 03 7b 08          	add    0x8(%rbx),%rdi
  402f10:	48 69 d2 40 42 0f 00 	imul   $0xf4240,%rdx,%rdx
  402f17:	48 89 f8             	mov    %rdi,%rax
  402f1a:	48 29 d1             	sub    %rdx,%rcx
  402f1d:	48 f7 ee             	imul   %rsi
  402f20:	48 89 f8             	mov    %rdi,%rax
  402f23:	48 c1 f8 3f          	sar    $0x3f,%rax
  402f27:	48 c1 fa 12          	sar    $0x12,%rdx
  402f2b:	48 29 c2             	sub    %rax,%rdx
  402f2e:	49 01 d3             	add    %rdx,%r11
  402f31:	48 69 d2 40 42 0f 00 	imul   $0xf4240,%rdx,%rdx
  402f38:	4c 89 1b             	mov    %r11,(%rbx)
  402f3b:	4d 89 d3             	mov    %r10,%r11
  402f3e:	4c 03 5b 10          	add    0x10(%rbx),%r11
  402f42:	48 29 d7             	sub    %rdx,%rdi
  402f45:	48 89 7b 08          	mov    %rdi,0x8(%rbx)
  402f49:	48 89 cf             	mov    %rcx,%rdi
  402f4c:	48 03 7b 18          	add    0x18(%rbx),%rdi
  402f50:	48 89 f8             	mov    %rdi,%rax
  402f53:	48 f7 ee             	imul   %rsi
  402f56:	48 89 f8             	mov    %rdi,%rax
  402f59:	48 c1 f8 3f          	sar    $0x3f,%rax
  402f5d:	48 c1 fa 12          	sar    $0x12,%rdx
  402f61:	48 29 c2             	sub    %rax,%rdx
  402f64:	48 c1 e9 03          	shr    $0x3,%rcx
  402f68:	49 c1 e9 03          	shr    $0x3,%r9
  402f6c:	49 01 d3             	add    %rdx,%r11
  402f6f:	48 89 c8             	mov    %rcx,%rax
  402f72:	4d 01 d0             	add    %r10,%r8
  402f75:	48 69 d2 40 42 0f 00 	imul   $0xf4240,%rdx,%rdx
  402f7c:	4c 89 5b 10          	mov    %r11,0x10(%rbx)
  402f80:	4d 69 c0 e8 03 00 00 	imul   $0x3e8,%r8,%r8
  402f87:	48 29 d7             	sub    %rdx,%rdi
  402f8a:	48 89 7b 18          	mov    %rdi,0x18(%rbx)
  402f8e:	48 bf cf f7 53 e3 a5 	movabs $0x20c49ba5e353f7cf,%rdi
  402f95:	9b c4 20 
  402f98:	48 81 c4 98 00 00 00 	add    $0x98,%rsp
  402f9f:	48 f7 e7             	mul    %rdi
  402fa2:	4c 89 c8             	mov    %r9,%rax
  402fa5:	5b                   	pop    %rbx
  402fa6:	5d                   	pop    %rbp
  402fa7:	48 89 d6             	mov    %rdx,%rsi
  402faa:	48 f7 e7             	mul    %rdi
  402fad:	48 c1 ee 04          	shr    $0x4,%rsi
  402fb1:	48 c1 ea 04          	shr    $0x4,%rdx
  402fb5:	48 01 d6             	add    %rdx,%rsi
  402fb8:	4a 8d 04 06          	lea    (%rsi,%r8,1),%rax
  402fbc:	c3                   	retq   
  402fbd:	0f 1f 00             	nopl   (%rax)

0000000000402fc0 <setGCStateCurrentHeap>:
  402fc0:	55                   	push   %rbp
  402fc1:	53                   	push   %rbx
  402fc2:	48 89 fb             	mov    %rdi,%rbx
  402fc5:	48 83 ec 08          	sub    $0x8,%rsp
  402fc9:	48 8b bf 10 04 00 00 	mov    0x410(%rdi),%rdi
  402fd0:	4c 8b 43 28          	mov    0x28(%rbx),%r8
  402fd4:	48 89 f9             	mov    %rdi,%rcx
  402fd7:	48 03 8b 18 04 00 00 	add    0x418(%rbx),%rcx
  402fde:	48 8d 81 00 fe ff ff 	lea    -0x200(%rcx),%rax
  402fe5:	48 89 cd             	mov    %rcx,%rbp
  402fe8:	48 89 8b 58 04 00 00 	mov    %rcx,0x458(%rbx)
  402fef:	48 89 43 08          	mov    %rax,0x8(%rbx)
  402ff3:	48 89 f8             	mov    %rdi,%rax
  402ff6:	48 2b 83 08 04 00 00 	sub    0x408(%rbx),%rax
  402ffd:	48 29 f0             	sub    %rsi,%rax
  403000:	48 29 c5             	sub    %rax,%rbp
  403003:	80 bb 70 04 00 00 00 	cmpb   $0x0,0x470(%rbx)
  40300a:	74 23                	je     40302f <setGCStateCurrentHeap+0x6f>
  40300c:	48 89 c6             	mov    %rax,%rsi
  40300f:	49 89 ca             	mov    %rcx,%r10
  403012:	48 d1 ee             	shr    %rsi
  403015:	49 29 f2             	sub    %rsi,%r10
  403018:	4b 8d 74 10 07       	lea    0x7(%r8,%r10,1),%rsi
  40301d:	49 f7 d8             	neg    %r8
  403020:	4c 21 c6             	and    %r8,%rsi
  403023:	48 83 ee 08          	sub    $0x8,%rsi
  403027:	48 29 f1             	sub    %rsi,%rcx
  40302a:	48 39 d1             	cmp    %rdx,%rcx
  40302d:	73 21                	jae    403050 <setGCStateCurrentHeap+0x90>
  40302f:	48 39 d0             	cmp    %rdx,%rax
  403032:	0f 82 52 01 00 00    	jb     40318a <setGCStateCurrentHeap+0x1ca>
  403038:	c6 43 60 00          	movb   $0x0,0x60(%rbx)
  40303c:	48 89 ab 00 04 00 00 	mov    %rbp,0x400(%rbx)
  403043:	48 89 2b             	mov    %rbp,(%rbx)
  403046:	48 83 c4 08          	add    $0x8,%rsp
  40304a:	5b                   	pop    %rbx
  40304b:	5d                   	pop    %rbp
  40304c:	c3                   	retq   
  40304d:	0f 1f 00             	nopl   (%rax)
  403050:	48 8b 8b 40 04 00 00 	mov    0x440(%rbx),%rcx
  403057:	49 89 f8             	mov    %rdi,%r8
  40305a:	49 29 c8             	sub    %rcx,%r8
  40305d:	0f 88 95 00 00 00    	js     4030f8 <setGCStateCurrentHeap+0x138>
  403063:	f3 49 0f 2a c8       	cvtsi2ss %r8,%xmm1
  403068:	48 85 c0             	test   %rax,%rax
  40306b:	0f 88 b7 00 00 00    	js     403128 <setGCStateCurrentHeap+0x168>
  403071:	f3 48 0f 2a c0       	cvtsi2ss %rax,%xmm0
  403076:	f3 0f 5e c8          	divss  %xmm0,%xmm1
  40307a:	f3 0f 10 83 a4 00 00 	movss  0xa4(%rbx),%xmm0
  403081:	00 
  403082:	0f 2e c1             	ucomiss %xmm1,%xmm0
  403085:	72 a8                	jb     40302f <setGCStateCurrentHeap+0x6f>
  403087:	83 bb 48 04 00 00 01 	cmpl   $0x1,0x448(%rbx)
  40308e:	74 41                	je     4030d1 <setGCStateCurrentHeap+0x111>
  403090:	48 85 ff             	test   %rdi,%rdi
  403093:	0f 88 b7 00 00 00    	js     403150 <setGCStateCurrentHeap+0x190>
  403099:	f3 48 0f 2a cf       	cvtsi2ss %rdi,%xmm1
  40309e:	48 85 c9             	test   %rcx,%rcx
  4030a1:	0f 88 c9 00 00 00    	js     403170 <setGCStateCurrentHeap+0x1b0>
  4030a7:	f3 48 0f 2a c1       	cvtsi2ss %rcx,%xmm0
  4030ac:	48 8b bb 60 06 00 00 	mov    0x660(%rbx),%rdi
  4030b3:	48 39 bb 20 04 00 00 	cmp    %rdi,0x420(%rbx)
  4030ba:	f3 0f 5e c8          	divss  %xmm0,%xmm1
  4030be:	73 58                	jae    403118 <setGCStateCurrentHeap+0x158>
  4030c0:	f3 0f 10 83 8c 00 00 	movss  0x8c(%rbx),%xmm0
  4030c7:	00 
  4030c8:	0f 2e c1             	ucomiss %xmm1,%xmm0
  4030cb:	0f 82 5e ff ff ff    	jb     40302f <setGCStateCurrentHeap+0x6f>
  4030d1:	48 8b bb c0 03 00 00 	mov    0x3c0(%rbx),%rdi
  4030d8:	48 8b 93 d0 03 00 00 	mov    0x3d0(%rbx),%rdx
  4030df:	48 89 f5             	mov    %rsi,%rbp
  4030e2:	c6 43 60 01          	movb   $0x1,0x60(%rbx)
  4030e6:	31 f6                	xor    %esi,%esi
  4030e8:	e8 13 e5 ff ff       	callq  401600 <memset@plt>
  4030ed:	e9 4a ff ff ff       	jmpq   40303c <setGCStateCurrentHeap+0x7c>
  4030f2:	66 0f 1f 44 00 00    	nopw   0x0(%rax,%rax,1)
  4030f8:	4d 89 c1             	mov    %r8,%r9
  4030fb:	41 83 e0 01          	and    $0x1,%r8d
  4030ff:	49 d1 e9             	shr    %r9
  403102:	4d 09 c1             	or     %r8,%r9
  403105:	f3 49 0f 2a c9       	cvtsi2ss %r9,%xmm1
  40310a:	f3 0f 58 c9          	addss  %xmm1,%xmm1
  40310e:	e9 55 ff ff ff       	jmpq   403068 <setGCStateCurrentHeap+0xa8>
  403113:	0f 1f 44 00 00       	nopl   0x0(%rax,%rax,1)
  403118:	f3 0f 10 83 a0 00 00 	movss  0xa0(%rbx),%xmm0
  40311f:	00 
  403120:	eb a6                	jmp    4030c8 <setGCStateCurrentHeap+0x108>
  403122:	66 0f 1f 44 00 00    	nopw   0x0(%rax,%rax,1)
  403128:	49 89 c0             	mov    %rax,%r8
  40312b:	49 89 c1             	mov    %rax,%r9
  40312e:	49 d1 e8             	shr    %r8
  403131:	41 83 e1 01          	and    $0x1,%r9d
  403135:	4d 09 c8             	or     %r9,%r8
  403138:	f3 49 0f 2a c0       	cvtsi2ss %r8,%xmm0
  40313d:	f3 0f 58 c0          	addss  %xmm0,%xmm0
  403141:	e9 30 ff ff ff       	jmpq   403076 <setGCStateCurrentHeap+0xb6>
  403146:	66 2e 0f 1f 84 00 00 	nopw   %cs:0x0(%rax,%rax,1)
  40314d:	00 00 00 
  403150:	49 89 f8             	mov    %rdi,%r8
  403153:	83 e7 01             	and    $0x1,%edi
  403156:	49 d1 e8             	shr    %r8
  403159:	49 09 f8             	or     %rdi,%r8
  40315c:	f3 49 0f 2a c8       	cvtsi2ss %r8,%xmm1
  403161:	f3 0f 58 c9          	addss  %xmm1,%xmm1
  403165:	e9 34 ff ff ff       	jmpq   40309e <setGCStateCurrentHeap+0xde>
  40316a:	66 0f 1f 44 00 00    	nopw   0x0(%rax,%rax,1)
  403170:	48 89 cf             	mov    %rcx,%rdi
  403173:	83 e1 01             	and    $0x1,%ecx
  403176:	48 d1 ef             	shr    %rdi
  403179:	48 09 cf             	or     %rcx,%rdi
  40317c:	f3 48 0f 2a c7       	cvtsi2ss %rdi,%xmm0
  403181:	f3 0f 58 c0          	addss  %xmm0,%xmm0
  403185:	e9 22 ff ff ff       	jmpq   4030ac <setGCStateCurrentHeap+0xec>
  40318a:	bf 38 85 41 00       	mov    $0x418538,%edi
  40318f:	31 c0                	xor    %eax,%eax
  403191:	e8 8a 0c 01 00       	callq  413e20 <die>
  403196:	66 2e 0f 1f 84 00 00 	nopw   %cs:0x0(%rax,%rax,1)
  40319d:	00 00 00 

00000000004031a0 <displayCol>:
  4031a0:	41 55                	push   %r13
  4031a2:	49 89 d5             	mov    %rdx,%r13
  4031a5:	41 54                	push   %r12
  4031a7:	49 89 f4             	mov    %rsi,%r12
  4031aa:	55                   	push   %rbp
  4031ab:	48 89 fd             	mov    %rdi,%rbp
  4031ae:	48 89 d7             	mov    %rdx,%rdi
  4031b1:	53                   	push   %rbx
  4031b2:	48 83 ec 08          	sub    $0x8,%rsp
  4031b6:	e8 d5 e3 ff ff       	callq  401590 <strlen@plt>
  4031bb:	4c 39 e0             	cmp    %r12,%rax
  4031be:	73 26                	jae    4031e6 <displayCol+0x46>
  4031c0:	49 29 c4             	sub    %rax,%r12
  4031c3:	74 21                	je     4031e6 <displayCol+0x46>
  4031c5:	31 db                	xor    %ebx,%ebx
  4031c7:	66 0f 1f 84 00 00 00 	nopw   0x0(%rax,%rax,1)
  4031ce:	00 00 
  4031d0:	48 89 ee             	mov    %rbp,%rsi
  4031d3:	bf 20 00 00 00       	mov    $0x20,%edi
  4031d8:	48 83 c3 01          	add    $0x1,%rbx
  4031dc:	e8 3f e4 ff ff       	callq  401620 <fputc@plt>
  4031e1:	4c 39 e3             	cmp    %r12,%rbx
  4031e4:	75 ea                	jne    4031d0 <displayCol+0x30>
  4031e6:	48 83 c4 08          	add    $0x8,%rsp
  4031ea:	48 89 ef             	mov    %rbp,%rdi
  4031ed:	4c 89 ea             	mov    %r13,%rdx
  4031f0:	5b                   	pop    %rbx
  4031f1:	5d                   	pop    %rbp
  4031f2:	41 5c                	pop    %r12
  4031f4:	41 5d                	pop    %r13
  4031f6:	be b3 9c 41 00       	mov    $0x419cb3,%esi
  4031fb:	31 c0                	xor    %eax,%eax
  4031fd:	e9 6e e4 ff ff       	jmpq   401670 <fprintf@plt>
  403202:	66 66 66 66 66 2e 0f 	data32 data32 data32 data32 nopw %cs:0x0(%rax,%rax,1)
  403209:	1f 84 00 00 00 00 00 

0000000000403210 <displayCollectionStats>:
  403210:	41 55                	push   %r13
  403212:	49 89 d1             	mov    %rdx,%r9
  403215:	41 54                	push   %r12
  403217:	49 89 cc             	mov    %rcx,%r12
  40321a:	48 b9 cf f7 53 e3 a5 	movabs $0x20c49ba5e353f7cf,%rcx
  403221:	9b c4 20 
  403224:	55                   	push   %rbp
  403225:	4c 89 c5             	mov    %r8,%rbp
  403228:	53                   	push   %rbx
  403229:	48 89 fb             	mov    %rdi,%rbx
  40322c:	48 89 f7             	mov    %rsi,%rdi
  40322f:	48 89 de             	mov    %rbx,%rsi
  403232:	48 83 ec 08          	sub    $0x8,%rsp
  403236:	4c 8b 52 18          	mov    0x18(%rdx),%r10
  40323a:	49 c1 ea 03          	shr    $0x3,%r10
  40323e:	4c 89 d0             	mov    %r10,%rax
  403241:	48 f7 e1             	mul    %rcx
  403244:	49 8b 41 08          	mov    0x8(%r9),%rax
  403248:	48 c1 e8 03          	shr    $0x3,%rax
  40324c:	49 89 d2             	mov    %rdx,%r10
  40324f:	48 f7 e1             	mul    %rcx
  403252:	49 8b 41 10          	mov    0x10(%r9),%rax
  403256:	49 03 01             	add    (%r9),%rax
  403259:	49 c1 ea 04          	shr    $0x4,%r10
  40325d:	48 69 c0 e8 03 00 00 	imul   $0x3e8,%rax,%rax
  403264:	48 c1 ea 04          	shr    $0x4,%rdx
  403268:	49 01 d2             	add    %rdx,%r10
  40326b:	4d 8d 2c 02          	lea    (%r10,%rax,1),%r13
  40326f:	e8 7c e3 ff ff       	callq  4015f0 <fputs@plt>
  403274:	4c 89 ef             	mov    %r13,%rdi
  403277:	e8 a4 0e 01 00       	callq  414120 <uintmaxToCommaString>
  40327c:	be 07 00 00 00       	mov    $0x7,%esi
  403281:	48 89 c2             	mov    %rax,%rdx
  403284:	48 89 df             	mov    %rbx,%rdi
  403287:	e8 14 ff ff ff       	callq  4031a0 <displayCol>
  40328c:	4c 89 e7             	mov    %r12,%rdi
  40328f:	e8 8c 0e 01 00       	callq  414120 <uintmaxToCommaString>
  403294:	be 07 00 00 00       	mov    $0x7,%esi
  403299:	48 89 c2             	mov    %rax,%rdx
  40329c:	48 89 df             	mov    %rbx,%rdi
  40329f:	e8 fc fe ff ff       	callq  4031a0 <displayCol>
  4032a4:	48 89 ef             	mov    %rbp,%rdi
  4032a7:	e8 74 0e 01 00       	callq  414120 <uintmaxToCommaString>
  4032ac:	be 0f 00 00 00       	mov    $0xf,%esi
  4032b1:	48 89 c2             	mov    %rax,%rdx
  4032b4:	48 89 df             	mov    %rbx,%rdi
  4032b7:	e8 e4 fe ff ff       	callq  4031a0 <displayCol>
  4032bc:	4d 85 ed             	test   %r13,%r13
  4032bf:	ba 32 84 41 00       	mov    $0x418432,%edx
  4032c4:	75 2a                	jne    4032f0 <displayCollectionStats+0xe0>
  4032c6:	48 89 df             	mov    %rbx,%rdi
  4032c9:	be 0f 00 00 00       	mov    $0xf,%esi
  4032ce:	e8 cd fe ff ff       	callq  4031a0 <displayCol>
  4032d3:	48 83 c4 08          	add    $0x8,%rsp
  4032d7:	48 89 de             	mov    %rbx,%rsi
  4032da:	bf 0a 00 00 00       	mov    $0xa,%edi
  4032df:	5b                   	pop    %rbx
  4032e0:	5d                   	pop    %rbp
  4032e1:	41 5c                	pop    %r12
  4032e3:	41 5d                	pop    %r13
  4032e5:	e9 36 e3 ff ff       	jmpq   401620 <fputc@plt>
  4032ea:	66 0f 1f 44 00 00    	nopw   0x0(%rax,%rax,1)
  4032f0:	48 85 ed             	test   %rbp,%rbp
  4032f3:	0f 88 87 00 00 00    	js     403380 <displayCollectionStats+0x170>
  4032f9:	f3 48 0f 2a c5       	cvtsi2ss %rbp,%xmm0
  4032fe:	0f 14 c0             	unpcklps %xmm0,%xmm0
  403301:	4d 85 ed             	test   %r13,%r13
  403304:	0f 5a c0             	cvtps2pd %xmm0,%xmm0
  403307:	f2 0f 59 05 59 6d 01 	mulsd  0x16d59(%rip),%xmm0        # 41a068 <_IO_stdin_used+0x1c48>
  40330e:	00 
  40330f:	78 4f                	js     403360 <displayCollectionStats+0x150>
  403311:	f3 49 0f 2a cd       	cvtsi2ss %r13,%xmm1
  403316:	0f 14 c9             	unpcklps %xmm1,%xmm1
  403319:	0f 5a c9             	cvtps2pd %xmm1,%xmm1
  40331c:	f2 0f 5e c1          	divsd  %xmm1,%xmm0
  403320:	f2 0f 10 0d 48 6d 01 	movsd  0x16d48(%rip),%xmm1        # 41a070 <_IO_stdin_used+0x1c50>
  403327:	00 
  403328:	66 0f 2e c1          	ucomisd %xmm1,%xmm0
  40332c:	73 12                	jae    403340 <displayCollectionStats+0x130>
  40332e:	f2 48 0f 2c f8       	cvttsd2si %xmm0,%rdi
  403333:	e8 e8 0d 01 00       	callq  414120 <uintmaxToCommaString>
  403338:	48 89 c2             	mov    %rax,%rdx
  40333b:	eb 89                	jmp    4032c6 <displayCollectionStats+0xb6>
  40333d:	0f 1f 00             	nopl   (%rax)
  403340:	f2 0f 5c c1          	subsd  %xmm1,%xmm0
  403344:	48 b8 00 00 00 00 00 	movabs $0x8000000000000000,%rax
  40334b:	00 00 80 
  40334e:	f2 48 0f 2c f8       	cvttsd2si %xmm0,%rdi
  403353:	48 31 c7             	xor    %rax,%rdi
  403356:	eb db                	jmp    403333 <displayCollectionStats+0x123>
  403358:	0f 1f 84 00 00 00 00 	nopl   0x0(%rax,%rax,1)
  40335f:	00 
  403360:	4c 89 e9             	mov    %r13,%rcx
  403363:	41 83 e5 01          	and    $0x1,%r13d
  403367:	48 d1 e9             	shr    %rcx
  40336a:	4c 09 e9             	or     %r13,%rcx
  40336d:	f3 48 0f 2a c9       	cvtsi2ss %rcx,%xmm1
  403372:	f3 0f 58 c9          	addss  %xmm1,%xmm1
  403376:	eb 9e                	jmp    403316 <displayCollectionStats+0x106>
  403378:	0f 1f 84 00 00 00 00 	nopl   0x0(%rax,%rax,1)
  40337f:	00 
  403380:	48 89 e8             	mov    %rbp,%rax
  403383:	83 e5 01             	and    $0x1,%ebp
  403386:	48 d1 e8             	shr    %rax
  403389:	48 09 e8             	or     %rbp,%rax
  40338c:	f3 48 0f 2a c0       	cvtsi2ss %rax,%xmm0
  403391:	f3 0f 58 c0          	addss  %xmm0,%xmm0
  403395:	e9 64 ff ff ff       	jmpq   4032fe <displayCollectionStats+0xee>
  40339a:	66 0f 1f 44 00 00    	nopw   0x0(%rax,%rax,1)

00000000004033a0 <initSignalStack>:
  4033a0:	80 3d 51 af 21 00 00 	cmpb   $0x0,0x21af51(%rip)        # 61e2f8 <init.13317>
  4033a7:	74 0f                	je     4033b8 <initSignalStack+0x18>
  4033a9:	31 f6                	xor    %esi,%esi
  4033ab:	bf e0 e2 61 00       	mov    $0x61e2e0,%edi
  4033b0:	e9 ab e4 ff ff       	jmpq   401860 <sigaltstack@plt>
  4033b5:	0f 1f 00             	nopl   (%rax)
  4033b8:	53                   	push   %rbx
  4033b9:	48 8b 97 68 06 00 00 	mov    0x668(%rdi),%rdx
  4033c0:	31 ff                	xor    %edi,%edi
  4033c2:	c6 05 2f af 21 00 01 	movb   $0x1,0x21af2f(%rip)        # 61e2f8 <init.13317>
  4033c9:	48 89 d3             	mov    %rdx,%rbx
  4033cc:	48 8d 82 ff 1f 00 00 	lea    0x1fff(%rdx),%rax
  4033d3:	48 89 d1             	mov    %rdx,%rcx
  4033d6:	48 f7 db             	neg    %rbx
  4033d9:	48 21 c3             	and    %rax,%rbx
  4033dc:	48 8d 34 1b          	lea    (%rbx,%rbx,1),%rsi
  4033e0:	e8 3b 11 01 00       	callq  414520 <GC_mmapAnon_safe_protect>
  4033e5:	48 89 1d 04 af 21 00 	mov    %rbx,0x21af04(%rip)        # 61e2f0 <altstack.13318+0x10>
  4033ec:	48 01 d8             	add    %rbx,%rax
  4033ef:	31 f6                	xor    %esi,%esi
  4033f1:	5b                   	pop    %rbx
  4033f2:	bf e0 e2 61 00       	mov    $0x61e2e0,%edi
  4033f7:	48 89 05 e2 ae 21 00 	mov    %rax,0x21aee2(%rip)        # 61e2e0 <altstack.13318>
  4033fe:	c7 05 e0 ae 21 00 00 	movl   $0x0,0x21aee0(%rip)        # 61e2e8 <altstack.13318+0x8>
  403405:	00 00 00 
  403408:	e9 53 e4 ff ff       	jmpq   401860 <sigaltstack@plt>
  40340d:	0f 1f 00             	nopl   (%rax)

0000000000403410 <stringToBytes>:
  403410:	53                   	push   %rbx
  403411:	48 89 fb             	mov    %rdi,%rbx
  403414:	48 83 ec 10          	sub    $0x10,%rsp
  403418:	48 8d 74 24 08       	lea    0x8(%rsp),%rsi
  40341d:	e8 1e e1 ff ff       	callq  401540 <strtod@plt>
  403422:	48 8b 44 24 08       	mov    0x8(%rsp),%rax
  403427:	48 39 c3             	cmp    %rax,%rbx
  40342a:	0f 84 dd 00 00 00    	je     40350d <stringToBytes+0xfd>
  403430:	48 8d 50 01          	lea    0x1(%rax),%rdx
  403434:	48 89 54 24 08       	mov    %rdx,0x8(%rsp)
  403439:	0f b6 38             	movzbl (%rax),%edi
  40343c:	8d 4f b9             	lea    -0x47(%rdi),%ecx
  40343f:	80 f9 26             	cmp    $0x26,%cl
  403442:	0f 87 c5 00 00 00    	ja     40350d <stringToBytes+0xfd>
  403448:	ba 01 00 00 00       	mov    $0x1,%edx
  40344d:	48 d3 e2             	shl    %cl,%rdx
  403450:	48 b9 01 00 00 00 01 	movabs $0x100000001,%rcx
  403457:	00 00 00 
  40345a:	48 85 ca             	test   %rcx,%rdx
  40345d:	74 51                	je     4034b0 <stringToBytes+0xa0>
  40345f:	f2 0f 10 0d 11 6c 01 	movsd  0x16c11(%rip),%xmm1        # 41a078 <_IO_stdin_used+0x1c58>
  403466:	00 
  403467:	80 78 01 00          	cmpb   $0x0,0x1(%rax)
  40346b:	f2 0f 59 c1          	mulsd  %xmm1,%xmm0
  40346f:	0f 85 98 00 00 00    	jne    40350d <stringToBytes+0xfd>
  403475:	66 0f 2e 05 13 6c 01 	ucomisd 0x16c13(%rip),%xmm0        # 41a090 <_IO_stdin_used+0x1c70>
  40347c:	00 
  40347d:	0f 82 8a 00 00 00    	jb     40350d <stringToBytes+0xfd>
  403483:	f2 0f 10 0d 0d 6c 01 	movsd  0x16c0d(%rip),%xmm1        # 41a098 <_IO_stdin_used+0x1c78>
  40348a:	00 
  40348b:	66 0f 2e c8          	ucomisd %xmm0,%xmm1
  40348f:	72 7c                	jb     40350d <stringToBytes+0xfd>
  403491:	f2 0f 10 0d d7 6b 01 	movsd  0x16bd7(%rip),%xmm1        # 41a070 <_IO_stdin_used+0x1c50>
  403498:	00 
  403499:	66 0f 2e c1          	ucomisd %xmm1,%xmm0
  40349d:	73 41                	jae    4034e0 <stringToBytes+0xd0>
  40349f:	48 83 c4 10          	add    $0x10,%rsp
  4034a3:	f2 48 0f 2c c0       	cvttsd2si %xmm0,%rax
  4034a8:	5b                   	pop    %rbx
  4034a9:	c3                   	retq   
  4034aa:	66 0f 1f 44 00 00    	nopw   0x0(%rax,%rax,1)
  4034b0:	48 b9 40 00 00 00 40 	movabs $0x4000000040,%rcx
  4034b7:	00 00 00 
  4034ba:	48 85 ca             	test   %rcx,%rdx
  4034bd:	75 41                	jne    403500 <stringToBytes+0xf0>
  4034bf:	48 b9 10 00 00 00 10 	movabs $0x1000000010,%rcx
  4034c6:	00 00 00 
  4034c9:	48 85 ca             	test   %rcx,%rdx
  4034cc:	74 3f                	je     40350d <stringToBytes+0xfd>
  4034ce:	f2 0f 10 0d aa 6b 01 	movsd  0x16baa(%rip),%xmm1        # 41a080 <_IO_stdin_used+0x1c60>
  4034d5:	00 
  4034d6:	eb 8f                	jmp    403467 <stringToBytes+0x57>
  4034d8:	0f 1f 84 00 00 00 00 	nopl   0x0(%rax,%rax,1)
  4034df:	00 
  4034e0:	f2 0f 5c c1          	subsd  %xmm1,%xmm0
  4034e4:	48 ba 00 00 00 00 00 	movabs $0x8000000000000000,%rdx
  4034eb:	00 00 80 
  4034ee:	48 83 c4 10          	add    $0x10,%rsp
  4034f2:	5b                   	pop    %rbx
  4034f3:	f2 48 0f 2c c0       	cvttsd2si %xmm0,%rax
  4034f8:	48 31 d0             	xor    %rdx,%rax
  4034fb:	c3                   	retq   
  4034fc:	0f 1f 40 00          	nopl   0x0(%rax)
  403500:	f2 0f 10 0d 80 6b 01 	movsd  0x16b80(%rip),%xmm1        # 41a088 <_IO_stdin_used+0x1c68>
  403507:	00 
  403508:	e9 5a ff ff ff       	jmpq   403467 <stringToBytes+0x57>
  40350d:	48 89 de             	mov    %rbx,%rsi
  403510:	bf 68 85 41 00       	mov    $0x418568,%edi
  403515:	31 c0                	xor    %eax,%eax
  403517:	e8 04 09 01 00       	callq  413e20 <die>
  40351c:	0f 1f 40 00          	nopl   0x0(%rax)

0000000000403520 <stringToFloat>:
  403520:	53                   	push   %rbx
  403521:	48 89 fb             	mov    %rdi,%rbx
  403524:	48 83 ec 10          	sub    $0x10,%rsp
  403528:	48 8d 74 24 08       	lea    0x8(%rsp),%rsi
  40352d:	e8 6e 11 01 00       	callq  4146a0 <gdtoa__strtof>
  403532:	48 3b 5c 24 08       	cmp    0x8(%rsp),%rbx
  403537:	74 06                	je     40353f <stringToFloat+0x1f>
  403539:	48 83 c4 10          	add    $0x10,%rsp
  40353d:	5b                   	pop    %rbx
  40353e:	c3                   	retq   
  40353f:	48 89 de             	mov    %rbx,%rsi
  403542:	bf b7 9c 41 00       	mov    $0x419cb7,%edi
  403547:	31 c0                	xor    %eax,%eax
  403549:	e8 d2 08 01 00       	callq  413e20 <die>
  40354e:	66 90                	xchg   %ax,%ax

0000000000403550 <setProfTimer>:
  403550:	48 83 ec 28          	sub    $0x28,%rsp
  403554:	31 d2                	xor    %edx,%edx
  403556:	48 89 7c 24 08       	mov    %rdi,0x8(%rsp)
  40355b:	48 89 7c 24 18       	mov    %rdi,0x18(%rsp)
  403560:	48 89 e6             	mov    %rsp,%rsi
  403563:	bf 02 00 00 00       	mov    $0x2,%edi
  403568:	48 c7 04 24 00 00 00 	movq   $0x0,(%rsp)
  40356f:	00 
  403570:	48 c7 44 24 10 00 00 	movq   $0x0,0x10(%rsp)
  403577:	00 00 
  403579:	e8 e2 e1 ff ff       	callq  401760 <setitimer@plt>
  40357e:	85 c0                	test   %eax,%eax
  403580:	75 05                	jne    403587 <setProfTimer+0x37>
  403582:	48 83 c4 28          	add    $0x28,%rsp
  403586:	c3                   	retq   
  403587:	bf 90 85 41 00       	mov    $0x418590,%edi
  40358c:	31 c0                	xor    %eax,%eax
  40358e:	e8 8d 08 01 00       	callq  413e20 <die>
  403593:	66 66 66 66 2e 0f 1f 	data32 data32 data32 nopw %cs:0x0(%rax,%rax,1)
  40359a:	84 00 00 00 00 00 

00000000004035a0 <sizeofCardMapAndCrossMap>:
  4035a0:	31 c0                	xor    %eax,%eax
  4035a2:	80 bf 70 04 00 00 00 	cmpb   $0x0,0x470(%rdi)
  4035a9:	74 19                	je     4035c4 <sizeofCardMapAndCrossMap+0x24>
  4035ab:	48 8b 97 68 06 00 00 	mov    0x668(%rdi),%rdx
  4035b2:	48 c1 ee 08          	shr    $0x8,%rsi
  4035b6:	48 8d 44 32 ff       	lea    -0x1(%rdx,%rsi,1),%rax
  4035bb:	48 f7 da             	neg    %rdx
  4035be:	48 21 d0             	and    %rdx,%rax
  4035c1:	48 01 c0             	add    %rax,%rax
  4035c4:	f3 c3                	repz retq 
  4035c6:	66 2e 0f 1f 84 00 00 	nopw   %cs:0x0(%rax,%rax,1)
  4035cd:	00 00 00 

00000000004035d0 <createHeap>:
  4035d0:	41 57                	push   %r15
  4035d2:	41 56                	push   %r14
  4035d4:	41 55                	push   %r13
  4035d6:	49 bd 00 00 00 00 00 	movabs $0x80000000000,%r13
  4035dd:	08 00 00 
  4035e0:	41 54                	push   %r12
  4035e2:	49 bc 00 00 00 00 00 	movabs $0x1000000000000,%r12
  4035e9:	00 01 00 
  4035ec:	55                   	push   %rbp
  4035ed:	53                   	push   %rbx
  4035ee:	48 83 ec 58          	sub    $0x58,%rsp
  4035f2:	48 8b 87 68 06 00 00 	mov    0x668(%rdi),%rax
  4035f9:	48 89 74 24 28       	mov    %rsi,0x28(%rsp)
  4035fe:	48 89 7c 24 10       	mov    %rdi,0x10(%rsp)
  403603:	c7 44 24 44 00 00 00 	movl   $0x0,0x44(%rsp)
  40360a:	00 
  40360b:	48 c7 44 24 20 10 00 	movq   $0x10,0x20(%rsp)
  403612:	00 00 
  403614:	48 8d 70 ff          	lea    -0x1(%rax),%rsi
  403618:	48 89 44 24 38       	mov    %rax,0x38(%rsp)
  40361d:	48 f7 d8             	neg    %rax
  403620:	48 8d 1c 31          	lea    (%rcx,%rsi,1),%rbx
  403624:	48 89 5c 24 18       	mov    %rbx,0x18(%rsp)
  403629:	48 21 44 24 18       	and    %rax,0x18(%rsp)
  40362e:	48 39 ca             	cmp    %rcx,%rdx
  403631:	48 0f 42 d1          	cmovb  %rcx,%rdx
  403635:	31 ed                	xor    %ebp,%ebp
  403637:	48 01 f2             	add    %rsi,%rdx
  40363a:	48 89 54 24 08       	mov    %rdx,0x8(%rsp)
  40363f:	48 21 44 24 08       	and    %rax,0x8(%rsp)
  403644:	48 8b 44 24 08       	mov    0x8(%rsp),%rax
  403649:	48 39 44 24 18       	cmp    %rax,0x18(%rsp)
  40364e:	0f 87 2d 02 00 00    	ja     403881 <createHeap+0x2b1>
  403654:	48 8b 5c 24 08       	mov    0x8(%rsp),%rbx
  403659:	48 8b 7c 24 10       	mov    0x10(%rsp),%rdi
  40365e:	49 bf 00 00 00 00 00 	movabs $0x80000000000,%r15
  403665:	08 00 00 
  403668:	41 be 01 00 00 00    	mov    $0x1,%r14d
  40366e:	48 89 de             	mov    %rbx,%rsi
  403671:	e8 2a ff ff ff       	callq  4035a0 <sizeofCardMapAndCrossMap>
  403676:	48 89 44 24 30       	mov    %rax,0x30(%rsp)
  40367b:	48 01 c3             	add    %rax,%rbx
  40367e:	eb 11                	jmp    403691 <createHeap+0xc1>
  403680:	41 83 c6 01          	add    $0x1,%r14d
  403684:	4d 01 ef             	add    %r13,%r15
  403687:	41 83 fe 21          	cmp    $0x21,%r14d
  40368b:	0f 84 7f 00 00 00    	je     403710 <createHeap+0x140>
  403691:	4c 89 e7             	mov    %r12,%rdi
  403694:	48 89 de             	mov    %rbx,%rsi
  403697:	4c 29 ff             	sub    %r15,%rdi
  40369a:	80 3d 03 a0 21 00 00 	cmpb   $0x0,0x21a003(%rip)        # 61d6a4 <addressScanDir.12198>
  4036a1:	49 0f 44 ff          	cmove  %r15,%rdi
  4036a5:	41 83 fe 20          	cmp    $0x20,%r14d
  4036a9:	48 0f 44 fd          	cmove  %rbp,%rdi
  4036ad:	e8 3e 0f 01 00       	callq  4145f0 <GC_mmapAnon>
  4036b2:	48 83 f8 ff          	cmp    $0xffffffffffffffff,%rax
  4036b6:	74 c8                	je     403680 <createHeap+0xb0>
  4036b8:	48 8b 4c 24 28       	mov    0x28(%rsp),%rcx
  4036bd:	48 8b 54 24 10       	mov    0x10(%rsp),%rdx
  4036c2:	80 35 db 9f 21 00 01 	xorb   $0x1,0x219fdb(%rip)        # 61d6a4 <addressScanDir.12198>
  4036c9:	48 89 41 18          	mov    %rax,0x18(%rcx)
  4036cd:	48 8b 44 24 08       	mov    0x8(%rsp),%rax
  4036d2:	48 39 82 00 01 00 00 	cmp    %rax,0x100(%rdx)
  4036d9:	48 89 59 20          	mov    %rbx,0x20(%rcx)
  4036dd:	48 89 41 10          	mov    %rax,0x10(%rcx)
  4036e1:	0f 82 99 00 00 00    	jb     403780 <createHeap+0x1b0>
  4036e7:	48 8b 44 24 10       	mov    0x10(%rsp),%rax
  4036ec:	0f b6 58 7b          	movzbl 0x7b(%rax),%ebx
  4036f0:	84 db                	test   %bl,%bl
  4036f2:	0f 85 a8 00 00 00    	jne    4037a0 <createHeap+0x1d0>
  4036f8:	bb 01 00 00 00       	mov    $0x1,%ebx
  4036fd:	48 83 c4 58          	add    $0x58,%rsp
  403701:	89 d8                	mov    %ebx,%eax
  403703:	5b                   	pop    %rbx
  403704:	5d                   	pop    %rbp
  403705:	41 5c                	pop    %r12
  403707:	41 5d                	pop    %r13
  403709:	41 5e                	pop    %r14
  40370b:	41 5f                	pop    %r15
  40370d:	c3                   	retq   
  40370e:	66 90                	xchg   %ax,%ax
  403710:	48 8b 74 24 20       	mov    0x20(%rsp),%rsi
  403715:	48 8b 44 24 18       	mov    0x18(%rsp),%rax
  40371a:	31 d2                	xor    %edx,%edx
  40371c:	48 8b 7c 24 10       	mov    0x10(%rsp),%rdi
  403721:	4c 8b 44 24 08       	mov    0x8(%rsp),%r8
  403726:	48 f7 f6             	div    %rsi
  403729:	48 8b 8f 68 06 00 00 	mov    0x668(%rdi),%rcx
  403730:	31 d2                	xor    %edx,%edx
  403732:	49 29 c8             	sub    %rcx,%r8
  403735:	48 8d 5c 01 ff       	lea    -0x1(%rcx,%rax,1),%rbx
  40373a:	4c 89 c0             	mov    %r8,%rax
  40373d:	48 f7 d9             	neg    %rcx
  403740:	48 f7 f6             	div    %rsi
  403743:	48 89 f2             	mov    %rsi,%rdx
  403746:	48 83 ea 01          	sub    $0x1,%rdx
  40374a:	48 0f af c2          	imul   %rdx,%rax
  40374e:	48 01 c3             	add    %rax,%rbx
  403751:	48 21 cb             	and    %rcx,%rbx
  403754:	80 7f 7b 00          	cmpb   $0x0,0x7b(%rdi)
  403758:	0f 85 a0 00 00 00    	jne    4037fe <createHeap+0x22e>
  40375e:	48 8b 44 24 20       	mov    0x20(%rsp),%rax
  403763:	48 39 44 24 38       	cmp    %rax,0x38(%rsp)
  403768:	77 76                	ja     4037e0 <createHeap+0x210>
  40376a:	4c 3b 44 24 18       	cmp    0x18(%rsp),%r8
  40376f:	0f 82 0c 01 00 00    	jb     403881 <createHeap+0x2b1>
  403775:	48 89 5c 24 08       	mov    %rbx,0x8(%rsp)
  40377a:	e9 d5 fe ff ff       	jmpq   403654 <createHeap+0x84>
  40377f:	90                   	nop
  403780:	48 89 d0             	mov    %rdx,%rax
  403783:	48 8b 54 24 08       	mov    0x8(%rsp),%rdx
  403788:	48 89 90 00 01 00 00 	mov    %rdx,0x100(%rax)
  40378f:	48 8b 44 24 10       	mov    0x10(%rsp),%rax
  403794:	0f b6 58 7b          	movzbl 0x7b(%rax),%ebx
  403798:	84 db                	test   %bl,%bl
  40379a:	0f 84 58 ff ff ff    	je     4036f8 <createHeap+0x128>
  4037a0:	48 8b 7c 24 30       	mov    0x30(%rsp),%rdi
  4037a5:	e8 76 09 01 00       	callq  414120 <uintmaxToCommaString>
  4037aa:	4c 8b 74 24 28       	mov    0x28(%rsp),%r14
  4037af:	48 89 c5             	mov    %rax,%rbp
  4037b2:	49 8b 7e 10          	mov    0x10(%r14),%rdi
  4037b6:	e8 65 09 01 00       	callq  414120 <uintmaxToCommaString>
  4037bb:	49 8b 56 18          	mov    0x18(%r14),%rdx
  4037bf:	48 8b 3d 2a 9f 21 00 	mov    0x219f2a(%rip),%rdi        # 61d6f0 <stderr@@GLIBC_2.2.5>
  4037c6:	48 89 c1             	mov    %rax,%rcx
  4037c9:	49 89 e8             	mov    %rbp,%r8
  4037cc:	be b0 85 41 00       	mov    $0x4185b0,%esi
  4037d1:	31 c0                	xor    %eax,%eax
  4037d3:	e8 98 de ff ff       	callq  401670 <fprintf@plt>
  4037d8:	e9 20 ff ff ff       	jmpq   4036fd <createHeap+0x12d>
  4037dd:	0f 1f 00             	nopl   (%rax)
  4037e0:	83 44 24 44 01       	addl   $0x1,0x44(%rsp)
  4037e5:	48 89 c2             	mov    %rax,%rdx
  4037e8:	48 01 c0             	add    %rax,%rax
  4037eb:	f6 44 24 44 3f       	testb  $0x3f,0x44(%rsp)
  4037f0:	48 0f 45 c2          	cmovne %rdx,%rax
  4037f4:	48 89 44 24 20       	mov    %rax,0x20(%rsp)
  4037f9:	e9 6c ff ff ff       	jmpq   40376a <createHeap+0x19a>
  4037fe:	48 8b 7c 24 30       	mov    0x30(%rsp),%rdi
  403803:	4c 89 44 24 48       	mov    %r8,0x48(%rsp)
  403808:	e8 13 09 01 00       	callq  414120 <uintmaxToCommaString>
  40380d:	4c 8b 74 24 08       	mov    0x8(%rsp),%r14
  403812:	49 89 c7             	mov    %rax,%r15
  403815:	4c 89 f7             	mov    %r14,%rdi
  403818:	e8 03 09 01 00       	callq  414120 <uintmaxToCommaString>
  40381d:	48 8b 3d cc 9e 21 00 	mov    0x219ecc(%rip),%rdi        # 61d6f0 <stderr@@GLIBC_2.2.5>
  403824:	4c 89 f9             	mov    %r15,%rcx
  403827:	48 89 c2             	mov    %rax,%rdx
  40382a:	be 00 86 41 00       	mov    $0x418600,%esi
  40382f:	31 c0                	xor    %eax,%eax
  403831:	e8 3a de ff ff       	callq  401670 <fprintf@plt>
  403836:	48 8b 7c 24 18       	mov    0x18(%rsp),%rdi
  40383b:	e8 e0 08 01 00       	callq  414120 <uintmaxToCommaString>
  403840:	4c 89 f7             	mov    %r14,%rdi
  403843:	49 89 c7             	mov    %rax,%r15
  403846:	48 29 df             	sub    %rbx,%rdi
  403849:	e8 d2 08 01 00       	callq  414120 <uintmaxToCommaString>
  40384e:	48 8b 3d 9b 9e 21 00 	mov    0x219e9b(%rip),%rdi        # 61d6f0 <stderr@@GLIBC_2.2.5>
  403855:	48 89 c2             	mov    %rax,%rdx
  403858:	4c 89 f9             	mov    %r15,%rcx
  40385b:	31 c0                	xor    %eax,%eax
  40385d:	be 58 86 41 00       	mov    $0x418658,%esi
  403862:	e8 09 de ff ff       	callq  401670 <fprintf@plt>
  403867:	48 8b 44 24 20       	mov    0x20(%rsp),%rax
  40386c:	48 39 44 24 38       	cmp    %rax,0x38(%rsp)
  403871:	4c 8b 44 24 48       	mov    0x48(%rsp),%r8
  403876:	0f 86 ee fe ff ff    	jbe    40376a <createHeap+0x19a>
  40387c:	e9 5f ff ff ff       	jmpq   4037e0 <createHeap+0x210>
  403881:	31 db                	xor    %ebx,%ebx
  403883:	e9 75 fe ff ff       	jmpq   4036fd <createHeap+0x12d>
  403888:	0f 1f 84 00 00 00 00 	nopl   0x0(%rax,%rax,1)
  40388f:	00 

0000000000403890 <remapHeap>:
  403890:	41 57                	push   %r15
  403892:	41 56                	push   %r14
  403894:	49 89 fe             	mov    %rdi,%r14
  403897:	41 55                	push   %r13
  403899:	41 54                	push   %r12
  40389b:	55                   	push   %rbp
  40389c:	48 89 f5             	mov    %rsi,%rbp
  40389f:	53                   	push   %rbx
  4038a0:	48 83 ec 38          	sub    $0x38,%rsp
  4038a4:	48 8b 87 68 06 00 00 	mov    0x668(%rdi),%rax
  4038ab:	48 8d 70 ff          	lea    -0x1(%rax),%rsi
  4038af:	48 f7 d8             	neg    %rax
  4038b2:	48 01 f1             	add    %rsi,%rcx
  4038b5:	48 8d 1c 32          	lea    (%rdx,%rsi,1),%rbx
  4038b9:	48 89 4c 24 18       	mov    %rcx,0x18(%rsp)
  4038be:	48 21 44 24 18       	and    %rax,0x18(%rsp)
  4038c3:	4c 8b 7c 24 18       	mov    0x18(%rsp),%r15
  4038c8:	48 21 c3             	and    %rax,%rbx
  4038cb:	49 39 df             	cmp    %rbx,%r15
  4038ce:	0f 87 8c 02 00 00    	ja     403b60 <remapHeap+0x2d0>
  4038d4:	48 89 5c 24 08       	mov    %rbx,0x8(%rsp)
  4038d9:	c7 44 24 14 00 00 00 	movl   $0x0,0x14(%rsp)
  4038e0:	00 
  4038e1:	eb 4b                	jmp    40392e <remapHeap+0x9e>
  4038e3:	0f 1f 44 00 00       	nopl   0x0(%rax,%rax,1)
  4038e8:	48 8b 4c 24 08       	mov    0x8(%rsp),%rcx
  4038ed:	49 8b 86 68 06 00 00 	mov    0x668(%r14),%rax
  4038f4:	c7 44 24 14 01 00 00 	movl   $0x1,0x14(%rsp)
  4038fb:	00 
  4038fc:	48 c1 e9 04          	shr    $0x4,%rcx
  403900:	4c 8d 3c 03          	lea    (%rbx,%rax,1),%r15
  403904:	48 89 ca             	mov    %rcx,%rdx
  403907:	48 c1 e2 04          	shl    $0x4,%rdx
  40390b:	48 29 ca             	sub    %rcx,%rdx
  40390e:	48 8d 5c 10 ff       	lea    -0x1(%rax,%rdx,1),%rbx
  403913:	4c 89 fa             	mov    %r15,%rdx
  403916:	48 f7 d8             	neg    %rax
  403919:	48 c1 ea 04          	shr    $0x4,%rdx
  40391d:	48 01 d3             	add    %rdx,%rbx
  403920:	48 21 c3             	and    %rax,%rbx
  403923:	4c 3b 7c 24 08       	cmp    0x8(%rsp),%r15
  403928:	0f 87 22 01 00 00    	ja     403a50 <remapHeap+0x1c0>
  40392e:	48 89 de             	mov    %rbx,%rsi
  403931:	4c 89 f7             	mov    %r14,%rdi
  403934:	e8 67 fc ff ff       	callq  4035a0 <sizeofCardMapAndCrossMap>
  403939:	48 8b 75 20          	mov    0x20(%rbp),%rsi
  40393d:	4c 8d 24 03          	lea    (%rbx,%rax,1),%r12
  403941:	48 8b 7d 18          	mov    0x18(%rbp),%rdi
  403945:	49 89 c5             	mov    %rax,%r13
  403948:	4c 89 e2             	mov    %r12,%rdx
  40394b:	e8 e0 0c 01 00       	callq  414630 <GC_mremap>
  403950:	48 83 f8 ff          	cmp    $0xffffffffffffffff,%rax
  403954:	0f 84 a6 00 00 00    	je     403a00 <remapHeap+0x170>
  40395a:	49 39 9e 00 01 00 00 	cmp    %rbx,0x100(%r14)
  403961:	4c 8b 7d 18          	mov    0x18(%rbp),%r15
  403965:	4c 8b 6d 10          	mov    0x10(%rbp),%r13
  403969:	48 8b 7d 20          	mov    0x20(%rbp),%rdi
  40396d:	48 89 45 18          	mov    %rax,0x18(%rbp)
  403971:	48 89 5d 10          	mov    %rbx,0x10(%rbp)
  403975:	4c 89 65 20          	mov    %r12,0x20(%rbp)
  403979:	73 07                	jae    403982 <remapHeap+0xf2>
  40397b:	49 89 9e 00 01 00 00 	mov    %rbx,0x100(%r14)
  403982:	41 80 7e 7b 00       	cmpb   $0x0,0x7b(%r14)
  403987:	0f 84 5b ff ff ff    	je     4038e8 <remapHeap+0x58>
  40398d:	4c 29 ef             	sub    %r13,%rdi
  403990:	e8 8b 07 01 00       	callq  414120 <uintmaxToCommaString>
  403995:	4c 89 ef             	mov    %r13,%rdi
  403998:	49 89 c4             	mov    %rax,%r12
  40399b:	e8 80 07 01 00       	callq  414120 <uintmaxToCommaString>
  4039a0:	48 8b 3d 49 9d 21 00 	mov    0x219d49(%rip),%rdi        # 61d6f0 <stderr@@GLIBC_2.2.5>
  4039a7:	4d 89 e0             	mov    %r12,%r8
  4039aa:	48 89 c1             	mov    %rax,%rcx
  4039ad:	4c 89 fa             	mov    %r15,%rdx
  4039b0:	be 98 86 41 00       	mov    $0x418698,%esi
  4039b5:	31 c0                	xor    %eax,%eax
  4039b7:	e8 b4 dc ff ff       	callq  401670 <fprintf@plt>
  4039bc:	48 8b 7d 20          	mov    0x20(%rbp),%rdi
  4039c0:	48 2b 7d 10          	sub    0x10(%rbp),%rdi
  4039c4:	e8 57 07 01 00       	callq  414120 <uintmaxToCommaString>
  4039c9:	48 8b 7d 10          	mov    0x10(%rbp),%rdi
  4039cd:	49 89 c5             	mov    %rax,%r13
  4039d0:	e8 4b 07 01 00       	callq  414120 <uintmaxToCommaString>
  4039d5:	48 8b 55 18          	mov    0x18(%rbp),%rdx
  4039d9:	48 8b 3d 10 9d 21 00 	mov    0x219d10(%rip),%rdi        # 61d6f0 <stderr@@GLIBC_2.2.5>
  4039e0:	48 89 c1             	mov    %rax,%rcx
  4039e3:	4d 89 e8             	mov    %r13,%r8
  4039e6:	be e8 86 41 00       	mov    $0x4186e8,%esi
  4039eb:	31 c0                	xor    %eax,%eax
  4039ed:	e8 7e dc ff ff       	callq  401670 <fprintf@plt>
  4039f2:	e9 f1 fe ff ff       	jmpq   4038e8 <remapHeap+0x58>
  4039f7:	66 0f 1f 84 00 00 00 	nopw   0x0(%rax,%rax,1)
  4039fe:	00 00 
  403a00:	49 8b 86 68 06 00 00 	mov    0x668(%r14),%rax
  403a07:	48 89 de             	mov    %rbx,%rsi
  403a0a:	4c 89 fa             	mov    %r15,%rdx
  403a0d:	48 c1 ea 04          	shr    $0x4,%rdx
  403a11:	48 29 c6             	sub    %rax,%rsi
  403a14:	4c 8d 5c 10 ff       	lea    -0x1(%rax,%rdx,1),%r11
  403a19:	48 f7 d8             	neg    %rax
  403a1c:	48 89 f1             	mov    %rsi,%rcx
  403a1f:	48 89 74 24 08       	mov    %rsi,0x8(%rsp)
  403a24:	48 c1 e9 04          	shr    $0x4,%rcx
  403a28:	48 89 ca             	mov    %rcx,%rdx
  403a2b:	48 c1 e2 04          	shl    $0x4,%rdx
  403a2f:	48 29 ca             	sub    %rcx,%rdx
  403a32:	49 01 d3             	add    %rdx,%r11
  403a35:	49 21 c3             	and    %rax,%r11
  403a38:	41 80 7e 7b 00       	cmpb   $0x0,0x7b(%r14)
  403a3d:	75 29                	jne    403a68 <remapHeap+0x1d8>
  403a3f:	4c 3b 7c 24 08       	cmp    0x8(%rsp),%r15
  403a44:	4c 89 db             	mov    %r11,%rbx
  403a47:	0f 86 e1 fe ff ff    	jbe    40392e <remapHeap+0x9e>
  403a4d:	0f 1f 00             	nopl   (%rax)
  403a50:	0f b6 44 24 14       	movzbl 0x14(%rsp),%eax
  403a55:	48 83 c4 38          	add    $0x38,%rsp
  403a59:	5b                   	pop    %rbx
  403a5a:	5d                   	pop    %rbp
  403a5b:	41 5c                	pop    %r12
  403a5d:	41 5d                	pop    %r13
  403a5f:	41 5e                	pop    %r14
  403a61:	41 5f                	pop    %r15
  403a63:	c3                   	retq   
  403a64:	0f 1f 40 00          	nopl   0x0(%rax)
  403a68:	48 8b 7d 20          	mov    0x20(%rbp),%rdi
  403a6c:	48 2b 7d 10          	sub    0x10(%rbp),%rdi
  403a70:	4c 89 5c 24 28       	mov    %r11,0x28(%rsp)
  403a75:	e8 a6 06 01 00       	callq  414120 <uintmaxToCommaString>
  403a7a:	48 8b 7d 10          	mov    0x10(%rbp),%rdi
  403a7e:	48 89 44 24 20       	mov    %rax,0x20(%rsp)
  403a83:	e8 98 06 01 00       	callq  414120 <uintmaxToCommaString>
  403a88:	48 8b 55 18          	mov    0x18(%rbp),%rdx
  403a8c:	4c 8b 44 24 20       	mov    0x20(%rsp),%r8
  403a91:	48 89 c1             	mov    %rax,%rcx
  403a94:	48 8b 3d 55 9c 21 00 	mov    0x219c55(%rip),%rdi        # 61d6f0 <stderr@@GLIBC_2.2.5>
  403a9b:	be 38 87 41 00       	mov    $0x418738,%esi
  403aa0:	31 c0                	xor    %eax,%eax
  403aa2:	e8 c9 db ff ff       	callq  401670 <fprintf@plt>
  403aa7:	4c 89 ef             	mov    %r13,%rdi
  403aaa:	e8 71 06 01 00       	callq  414120 <uintmaxToCommaString>
  403aaf:	48 89 df             	mov    %rbx,%rdi
  403ab2:	49 89 c5             	mov    %rax,%r13
  403ab5:	e8 66 06 01 00       	callq  414120 <uintmaxToCommaString>
  403aba:	48 8b 3d 2f 9c 21 00 	mov    0x219c2f(%rip),%rdi        # 61d6f0 <stderr@@GLIBC_2.2.5>
  403ac1:	48 89 c2             	mov    %rax,%rdx
  403ac4:	4c 89 e9             	mov    %r13,%rcx
  403ac7:	31 c0                	xor    %eax,%eax
  403ac9:	be 88 87 41 00       	mov    $0x418788,%esi
  403ace:	e8 9d db ff ff       	callq  401670 <fprintf@plt>
  403ad3:	8b 44 24 14          	mov    0x14(%rsp),%eax
  403ad7:	4c 8b 5c 24 28       	mov    0x28(%rsp),%r11
  403adc:	85 c0                	test   %eax,%eax
  403ade:	74 38                	je     403b18 <remapHeap+0x288>
  403ae0:	48 89 df             	mov    %rbx,%rdi
  403ae3:	4c 89 5c 24 20       	mov    %r11,0x20(%rsp)
  403ae8:	4c 29 df             	sub    %r11,%rdi
  403aeb:	e8 30 06 01 00       	callq  414120 <uintmaxToCommaString>
  403af0:	48 8b 3d f9 9b 21 00 	mov    0x219bf9(%rip),%rdi        # 61d6f0 <stderr@@GLIBC_2.2.5>
  403af7:	48 89 c2             	mov    %rax,%rdx
  403afa:	be e0 87 41 00       	mov    $0x4187e0,%esi
  403aff:	31 c0                	xor    %eax,%eax
  403b01:	e8 6a db ff ff       	callq  401670 <fprintf@plt>
  403b06:	4c 8b 5c 24 20       	mov    0x20(%rsp),%r11
  403b0b:	4c 89 db             	mov    %r11,%rbx
  403b0e:	e9 10 fe ff ff       	jmpq   403923 <remapHeap+0x93>
  403b13:	0f 1f 44 00 00       	nopl   0x0(%rax,%rax,1)
  403b18:	48 8b 7c 24 18       	mov    0x18(%rsp),%rdi
  403b1d:	4c 89 5c 24 20       	mov    %r11,0x20(%rsp)
  403b22:	e8 f9 05 01 00       	callq  414120 <uintmaxToCommaString>
  403b27:	4c 8b 5c 24 20       	mov    0x20(%rsp),%r11
  403b2c:	48 89 df             	mov    %rbx,%rdi
  403b2f:	49 89 c5             	mov    %rax,%r13
  403b32:	4c 29 df             	sub    %r11,%rdi
  403b35:	e8 e6 05 01 00       	callq  414120 <uintmaxToCommaString>
  403b3a:	48 8b 3d af 9b 21 00 	mov    0x219baf(%rip),%rdi        # 61d6f0 <stderr@@GLIBC_2.2.5>
  403b41:	48 89 c2             	mov    %rax,%rdx
  403b44:	4c 89 e9             	mov    %r13,%rcx
  403b47:	be 58 86 41 00       	mov    $0x418658,%esi
  403b4c:	31 c0                	xor    %eax,%eax
  403b4e:	e8 1d db ff ff       	callq  401670 <fprintf@plt>
  403b53:	4c 8b 5c 24 20       	mov    0x20(%rsp),%r11
  403b58:	4c 89 db             	mov    %r11,%rbx
  403b5b:	e9 c3 fd ff ff       	jmpq   403923 <remapHeap+0x93>
  403b60:	31 c0                	xor    %eax,%eax
  403b62:	e9 ee fe ff ff       	jmpq   403a55 <remapHeap+0x1c5>
  403b67:	66 0f 1f 84 00 00 00 	nopw   0x0(%rax,%rax,1)
  403b6e:	00 00 

0000000000403b70 <invertSizeofCardMapAndCrossMap.part.5>:
  403b70:	41 56                	push   %r14
  403b72:	49 89 fe             	mov    %rdi,%r14
  403b75:	41 55                	push   %r13
  403b77:	45 31 ed             	xor    %r13d,%r13d
  403b7a:	41 54                	push   %r12
  403b7c:	55                   	push   %rbp
  403b7d:	48 89 f5             	mov    %rsi,%rbp
  403b80:	53                   	push   %rbx
  403b81:	4c 8b a7 68 06 00 00 	mov    0x668(%rdi),%r12
  403b88:	4b 8d 04 64          	lea    (%r12,%r12,2),%rax
  403b8c:	48 39 f0             	cmp    %rsi,%rax
  403b8f:	73 52                	jae    403be3 <invertSizeofCardMapAndCrossMap.part.5+0x73>
  403b91:	48 89 f2             	mov    %rsi,%rdx
  403b94:	48 29 c2             	sub    %rax,%rdx
  403b97:	48 89 d0             	mov    %rdx,%rax
  403b9a:	0f 88 98 00 00 00    	js     403c38 <invertSizeofCardMapAndCrossMap.part.5+0xc8>
  403ba0:	f2 48 0f 2a c2       	cvtsi2sd %rdx,%xmm0
  403ba5:	4d 85 e4             	test   %r12,%r12
  403ba8:	f2 0f 59 05 f0 64 01 	mulsd  0x164f0(%rip),%xmm0        # 41a0a0 <_IO_stdin_used+0x1c80>
  403baf:	00 
  403bb0:	0f 88 a5 00 00 00    	js     403c5b <invertSizeofCardMapAndCrossMap.part.5+0xeb>
  403bb6:	f2 49 0f 2a cc       	cvtsi2sd %r12,%xmm1
  403bbb:	f2 0f 59 0d e5 64 01 	mulsd  0x164e5(%rip),%xmm1        # 41a0a8 <_IO_stdin_used+0x1c88>
  403bc2:	00 
  403bc3:	f2 0f 5c c1          	subsd  %xmm1,%xmm0
  403bc7:	f2 0f 10 0d a1 64 01 	movsd  0x164a1(%rip),%xmm1        # 41a070 <_IO_stdin_used+0x1c50>
  403bce:	00 
  403bcf:	66 0f 2e c1          	ucomisd %xmm1,%xmm0
  403bd3:	73 4b                	jae    403c20 <invertSizeofCardMapAndCrossMap.part.5+0xb0>
  403bd5:	f2 48 0f 2c c0       	cvttsd2si %xmm0,%rax
  403bda:	4d 89 e5             	mov    %r12,%r13
  403bdd:	49 f7 dd             	neg    %r13
  403be0:	49 21 c5             	and    %rax,%r13
  403be3:	4b 8d 5c 25 00       	lea    0x0(%r13,%r12,1),%rbx
  403be8:	eb 17                	jmp    403c01 <invertSizeofCardMapAndCrossMap.part.5+0x91>
  403bea:	66 0f 1f 44 00 00    	nopw   0x0(%rax,%rax,1)
  403bf0:	48 89 e9             	mov    %rbp,%rcx
  403bf3:	48 29 c1             	sub    %rax,%rcx
  403bf6:	48 39 cb             	cmp    %rcx,%rbx
  403bf9:	77 16                	ja     403c11 <invertSizeofCardMapAndCrossMap.part.5+0xa1>
  403bfb:	49 89 dd             	mov    %rbx,%r13
  403bfe:	4c 01 e3             	add    %r12,%rbx
  403c01:	48 89 de             	mov    %rbx,%rsi
  403c04:	4c 89 f7             	mov    %r14,%rdi
  403c07:	e8 94 f9 ff ff       	callq  4035a0 <sizeofCardMapAndCrossMap>
  403c0c:	48 39 c5             	cmp    %rax,%rbp
  403c0f:	73 df                	jae    403bf0 <invertSizeofCardMapAndCrossMap.part.5+0x80>
  403c11:	5b                   	pop    %rbx
  403c12:	5d                   	pop    %rbp
  403c13:	41 5c                	pop    %r12
  403c15:	4c 89 e8             	mov    %r13,%rax
  403c18:	41 5d                	pop    %r13
  403c1a:	41 5e                	pop    %r14
  403c1c:	c3                   	retq   
  403c1d:	0f 1f 00             	nopl   (%rax)
  403c20:	f2 0f 5c c1          	subsd  %xmm1,%xmm0
  403c24:	48 ba 00 00 00 00 00 	movabs $0x8000000000000000,%rdx
  403c2b:	00 00 80 
  403c2e:	f2 48 0f 2c c0       	cvttsd2si %xmm0,%rax
  403c33:	48 31 d0             	xor    %rdx,%rax
  403c36:	eb a2                	jmp    403bda <invertSizeofCardMapAndCrossMap.part.5+0x6a>
  403c38:	48 d1 ea             	shr    %rdx
  403c3b:	83 e0 01             	and    $0x1,%eax
  403c3e:	48 09 c2             	or     %rax,%rdx
  403c41:	4d 85 e4             	test   %r12,%r12
  403c44:	f2 48 0f 2a c2       	cvtsi2sd %rdx,%xmm0
  403c49:	f2 0f 58 c0          	addsd  %xmm0,%xmm0
  403c4d:	f2 0f 59 05 4b 64 01 	mulsd  0x1644b(%rip),%xmm0        # 41a0a0 <_IO_stdin_used+0x1c80>
  403c54:	00 
  403c55:	0f 89 5b ff ff ff    	jns    403bb6 <invertSizeofCardMapAndCrossMap.part.5+0x46>
  403c5b:	4c 89 e0             	mov    %r12,%rax
  403c5e:	4c 89 e2             	mov    %r12,%rdx
  403c61:	48 d1 e8             	shr    %rax
  403c64:	83 e2 01             	and    $0x1,%edx
  403c67:	48 09 d0             	or     %rdx,%rax
  403c6a:	f2 48 0f 2a c8       	cvtsi2sd %rax,%xmm1
  403c6f:	f2 0f 58 c9          	addsd  %xmm1,%xmm1
  403c73:	e9 43 ff ff ff       	jmpq   403bbb <invertSizeofCardMapAndCrossMap.part.5+0x4b>
  403c78:	0f 1f 84 00 00 00 00 	nopl   0x0(%rax,%rax,1)
  403c7f:	00 

0000000000403c80 <sizeofHeapDesired>:
  403c80:	41 57                	push   %r15
  403c82:	41 56                	push   %r14
  403c84:	49 89 d6             	mov    %rdx,%r14
  403c87:	41 55                	push   %r13
  403c89:	41 54                	push   %r12
  403c8b:	55                   	push   %rbp
  403c8c:	48 89 f5             	mov    %rsi,%rbp
  403c8f:	53                   	push   %rbx
  403c90:	48 89 fb             	mov    %rdi,%rbx
  403c93:	48 83 ec 08          	sub    $0x8,%rsp
  403c97:	4c 8b af 68 06 00 00 	mov    0x668(%rdi),%r13
  403c9e:	44 0f b6 bf 70 04 00 	movzbl 0x470(%rdi),%r15d
  403ca5:	00 
  403ca6:	4d 89 ec             	mov    %r13,%r12
  403ca9:	49 f7 dc             	neg    %r12
  403cac:	45 84 ff             	test   %r15b,%r15b
  403caf:	4c 89 e0             	mov    %r12,%rax
  403cb2:	0f 85 20 02 00 00    	jne    403ed8 <sizeofHeapDesired+0x258>
  403cb8:	49 83 ed 01          	sub    $0x1,%r13
  403cbc:	4c 01 ed             	add    %r13,%rbp
  403cbf:	4c 21 e5             	and    %r12,%rbp
  403cc2:	48 39 e8             	cmp    %rbp,%rax
  403cc5:	0f 82 02 04 00 00    	jb     4040cd <sizeofHeapDesired+0x44d>
  403ccb:	48 89 ee             	mov    %rbp,%rsi
  403cce:	48 89 df             	mov    %rbx,%rdi
  403cd1:	e8 ca f8 ff ff       	callq  4035a0 <sizeofCardMapAndCrossMap>
  403cd6:	4c 89 f6             	mov    %r14,%rsi
  403cd9:	48 01 c5             	add    %rax,%rbp
  403cdc:	48 89 df             	mov    %rbx,%rdi
  403cdf:	e8 bc f8 ff ff       	callq  4035a0 <sizeofCardMapAndCrossMap>
  403ce4:	4c 01 f0             	add    %r14,%rax
  403ce7:	48 85 ed             	test   %rbp,%rbp
  403cea:	48 8b 93 60 06 00 00 	mov    0x660(%rbx),%rdx
  403cf1:	0f 88 79 02 00 00    	js     403f70 <sizeofHeapDesired+0x2f0>
  403cf7:	f2 48 0f 2a d5       	cvtsi2sd %rbp,%xmm2
  403cfc:	48 85 d2             	test   %rdx,%rdx
  403cff:	0f 88 4b 02 00 00    	js     403f50 <sizeofHeapDesired+0x2d0>
  403d05:	f2 48 0f 2a ca       	cvtsi2sd %rdx,%xmm1
  403d0a:	f2 0f 5e ca          	divsd  %xmm2,%xmm1
  403d0e:	f3 0f 10 9b 98 00 00 	movss  0x98(%rbx),%xmm3
  403d15:	00 
  403d16:	0f 28 e3             	movaps %xmm3,%xmm4
  403d19:	f3 0f 10 83 90 00 00 	movss  0x90(%rbx),%xmm0
  403d20:	00 
  403d21:	f3 0f 58 e0          	addss  %xmm0,%xmm4
  403d25:	0f 14 e4             	unpcklps %xmm4,%xmm4
  403d28:	0f 5a e4             	cvtps2pd %xmm4,%xmm4
  403d2b:	66 0f 2e cc          	ucomisd %xmm4,%xmm1
  403d2f:	0f 82 ab 00 00 00    	jb     403de0 <sizeofHeapDesired+0x160>
  403d35:	48 85 ed             	test   %rbp,%rbp
  403d38:	0f 88 b2 02 00 00    	js     403ff0 <sizeofHeapDesired+0x370>
  403d3e:	f3 48 0f 2a c5       	cvtsi2ss %rbp,%xmm0
  403d43:	f3 0f 59 d8          	mulss  %xmm0,%xmm3
  403d47:	0f 2e 1d 82 63 01 00 	ucomiss 0x16382(%rip),%xmm3        # 41a0d0 <_IO_stdin_used+0x1cb0>
  403d4e:	0f 83 94 01 00 00    	jae    403ee8 <sizeofHeapDesired+0x268>
  403d54:	48 85 c0             	test   %rax,%rax
  403d57:	f3 48 0f 2c d3       	cvttss2si %xmm3,%rdx
  403d5c:	0f 88 a9 01 00 00    	js     403f0b <sizeofHeapDesired+0x28b>
  403d62:	48 85 d2             	test   %rdx,%rdx
  403d65:	f2 48 0f 2a c8       	cvtsi2sd %rax,%xmm1
  403d6a:	0f 88 bc 01 00 00    	js     403f2c <sizeofHeapDesired+0x2ac>
  403d70:	f2 48 0f 2a c2       	cvtsi2sd %rdx,%xmm0
  403d75:	f2 0f 10 15 33 63 01 	movsd  0x16333(%rip),%xmm2        # 41a0b0 <_IO_stdin_used+0x1c90>
  403d7c:	00 
  403d7d:	f2 0f 59 d1          	mulsd  %xmm1,%xmm2
  403d81:	66 0f 2e c2          	ucomisd %xmm2,%xmm0
  403d85:	0f 82 1d 01 00 00    	jb     403ea8 <sizeofHeapDesired+0x228>
  403d8b:	f2 0f 59 0d 25 63 01 	mulsd  0x16325(%rip),%xmm1        # 41a0b8 <_IO_stdin_used+0x1c98>
  403d92:	00 
  403d93:	66 0f 2e c8          	ucomisd %xmm0,%xmm1
  403d97:	0f 82 0b 01 00 00    	jb     403ea8 <sizeofHeapDesired+0x228>
  403d9d:	0f 1f 00             	nopl   (%rax)
  403da0:	48 8b 7b 68          	mov    0x68(%rbx),%rdi
  403da4:	48 85 ff             	test   %rdi,%rdi
  403da7:	74 67                	je     403e10 <sizeofHeapDesired+0x190>
  403da9:	48 89 fa             	mov    %rdi,%rdx
  403dac:	48 d1 ea             	shr    %rdx
  403daf:	48 39 d0             	cmp    %rdx,%rax
  403db2:	48 89 d0             	mov    %rdx,%rax
  403db5:	48 0f 47 c7          	cmova  %rdi,%rax
  403db9:	48 39 e8             	cmp    %rbp,%rax
  403dbc:	0f 82 22 03 00 00    	jb     4040e4 <sizeofHeapDesired+0x464>
  403dc2:	45 84 ff             	test   %r15b,%r15b
  403dc5:	0f 85 ed 00 00 00    	jne    403eb8 <sizeofHeapDesired+0x238>
  403dcb:	48 83 c4 08          	add    $0x8,%rsp
  403dcf:	5b                   	pop    %rbx
  403dd0:	5d                   	pop    %rbp
  403dd1:	41 5c                	pop    %r12
  403dd3:	41 5d                	pop    %r13
  403dd5:	41 5e                	pop    %r14
  403dd7:	41 5f                	pop    %r15
  403dd9:	c3                   	retq   
  403dda:	66 0f 1f 44 00 00    	nopw   0x0(%rax,%rax,1)
  403de0:	f3 0f 10 9b 88 00 00 	movss  0x88(%rbx),%xmm3
  403de7:	00 
  403de8:	0f 2e c3             	ucomiss %xmm3,%xmm0
  403deb:	72 53                	jb     403e40 <sizeofHeapDesired+0x1c0>
  403ded:	0f 14 db             	unpcklps %xmm3,%xmm3
  403df0:	0f 5a e3             	cvtps2pd %xmm3,%xmm4
  403df3:	f2 0f 58 e4          	addsd  %xmm4,%xmm4
  403df7:	66 0f 2e cc          	ucomisd %xmm4,%xmm1
  403dfb:	72 43                	jb     403e40 <sizeofHeapDesired+0x1c0>
  403dfd:	48 8b 7b 68          	mov    0x68(%rbx),%rdi
  403e01:	48 d1 ea             	shr    %rdx
  403e04:	4c 89 e0             	mov    %r12,%rax
  403e07:	48 21 d0             	and    %rdx,%rax
  403e0a:	48 85 ff             	test   %rdi,%rdi
  403e0d:	75 9a                	jne    403da9 <sizeofHeapDesired+0x129>
  403e0f:	90                   	nop
  403e10:	48 8b 7b 70          	mov    0x70(%rbx),%rdi
  403e14:	48 85 ff             	test   %rdi,%rdi
  403e17:	74 a9                	je     403dc2 <sizeofHeapDesired+0x142>
  403e19:	48 39 f8             	cmp    %rdi,%rax
  403e1c:	48 0f 47 c7          	cmova  %rdi,%rax
  403e20:	48 39 c5             	cmp    %rax,%rbp
  403e23:	76 9d                	jbe    403dc2 <sizeofHeapDesired+0x142>
  403e25:	e8 f6 02 01 00       	callq  414120 <uintmaxToCommaString>
  403e2a:	bf 58 88 41 00       	mov    $0x418858,%edi
  403e2f:	48 89 c6             	mov    %rax,%rsi
  403e32:	31 c0                	xor    %eax,%eax
  403e34:	e8 e7 ff 00 00       	callq  413e20 <die>
  403e39:	0f 1f 80 00 00 00 00 	nopl   0x0(%rax)
  403e40:	f3 0f 58 d8          	addss  %xmm0,%xmm3
  403e44:	0f 14 db             	unpcklps %xmm3,%xmm3
  403e47:	0f 5a db             	cvtps2pd %xmm3,%xmm3
  403e4a:	66 0f 2e cb          	ucomisd %xmm3,%xmm1
  403e4e:	0f 82 3c 01 00 00    	jb     403f90 <sizeofHeapDesired+0x310>
  403e54:	48 85 ed             	test   %rbp,%rbp
  403e57:	0f 88 f3 01 00 00    	js     404050 <sizeofHeapDesired+0x3d0>
  403e5d:	f3 48 0f 2a cd       	cvtsi2ss %rbp,%xmm1
  403e62:	f3 0f 59 c1          	mulss  %xmm1,%xmm0
  403e66:	0f 2e 05 63 62 01 00 	ucomiss 0x16263(%rip),%xmm0        # 41a0d0 <_IO_stdin_used+0x1cb0>
  403e6d:	0f 83 9d 01 00 00    	jae    404010 <sizeofHeapDesired+0x390>
  403e73:	f3 48 0f 2c c8       	cvttss2si %xmm0,%rcx
  403e78:	48 29 ca             	sub    %rcx,%rdx
  403e7b:	48 85 c0             	test   %rax,%rax
  403e7e:	0f 88 ac 01 00 00    	js     404030 <sizeofHeapDesired+0x3b0>
  403e84:	f2 48 0f 2a c8       	cvtsi2sd %rax,%xmm1
  403e89:	48 85 d2             	test   %rdx,%rdx
  403e8c:	0f 88 de 01 00 00    	js     404070 <sizeofHeapDesired+0x3f0>
  403e92:	f2 48 0f 2a c2       	cvtsi2sd %rdx,%xmm0
  403e97:	66 0f 2e c1          	ucomisd %xmm1,%xmm0
  403e9b:	0f 83 ea fe ff ff    	jae    403d8b <sizeofHeapDesired+0x10b>
  403ea1:	0f 1f 80 00 00 00 00 	nopl   0x0(%rax)
  403ea8:	4a 8d 04 2a          	lea    (%rdx,%r13,1),%rax
  403eac:	4c 21 e0             	and    %r12,%rax
  403eaf:	e9 ec fe ff ff       	jmpq   403da0 <sizeofHeapDesired+0x120>
  403eb4:	0f 1f 40 00          	nopl   0x0(%rax)
  403eb8:	48 83 c4 08          	add    $0x8,%rsp
  403ebc:	48 89 df             	mov    %rbx,%rdi
  403ebf:	48 89 c6             	mov    %rax,%rsi
  403ec2:	5b                   	pop    %rbx
  403ec3:	5d                   	pop    %rbp
  403ec4:	41 5c                	pop    %r12
  403ec6:	41 5d                	pop    %r13
  403ec8:	41 5e                	pop    %r14
  403eca:	41 5f                	pop    %r15
  403ecc:	e9 9f fc ff ff       	jmpq   403b70 <invertSizeofCardMapAndCrossMap.part.5>
  403ed1:	0f 1f 80 00 00 00 00 	nopl   0x0(%rax)
  403ed8:	4c 89 e6             	mov    %r12,%rsi
  403edb:	e8 90 fc ff ff       	callq  403b70 <invertSizeofCardMapAndCrossMap.part.5>
  403ee0:	e9 d3 fd ff ff       	jmpq   403cb8 <sizeofHeapDesired+0x38>
  403ee5:	0f 1f 00             	nopl   (%rax)
  403ee8:	f3 0f 5c 1d e0 61 01 	subss  0x161e0(%rip),%xmm3        # 41a0d0 <_IO_stdin_used+0x1cb0>
  403eef:	00 
  403ef0:	48 b9 00 00 00 00 00 	movabs $0x8000000000000000,%rcx
  403ef7:	00 00 80 
  403efa:	f3 48 0f 2c d3       	cvttss2si %xmm3,%rdx
  403eff:	48 31 ca             	xor    %rcx,%rdx
  403f02:	48 85 c0             	test   %rax,%rax
  403f05:	0f 89 57 fe ff ff    	jns    403d62 <sizeofHeapDesired+0xe2>
  403f0b:	48 89 c1             	mov    %rax,%rcx
  403f0e:	48 89 c6             	mov    %rax,%rsi
  403f11:	48 d1 e9             	shr    %rcx
  403f14:	83 e6 01             	and    $0x1,%esi
  403f17:	48 09 f1             	or     %rsi,%rcx
  403f1a:	48 85 d2             	test   %rdx,%rdx
  403f1d:	f2 48 0f 2a c9       	cvtsi2sd %rcx,%xmm1
  403f22:	f2 0f 58 c9          	addsd  %xmm1,%xmm1
  403f26:	0f 89 44 fe ff ff    	jns    403d70 <sizeofHeapDesired+0xf0>
  403f2c:	48 89 d1             	mov    %rdx,%rcx
  403f2f:	48 89 d6             	mov    %rdx,%rsi
  403f32:	48 d1 e9             	shr    %rcx
  403f35:	83 e6 01             	and    $0x1,%esi
  403f38:	48 09 f1             	or     %rsi,%rcx
  403f3b:	f2 48 0f 2a c1       	cvtsi2sd %rcx,%xmm0
  403f40:	f2 0f 58 c0          	addsd  %xmm0,%xmm0
  403f44:	e9 2c fe ff ff       	jmpq   403d75 <sizeofHeapDesired+0xf5>
  403f49:	0f 1f 80 00 00 00 00 	nopl   0x0(%rax)
  403f50:	48 89 d1             	mov    %rdx,%rcx
  403f53:	48 89 d6             	mov    %rdx,%rsi
  403f56:	48 d1 e9             	shr    %rcx
  403f59:	83 e6 01             	and    $0x1,%esi
  403f5c:	48 09 f1             	or     %rsi,%rcx
  403f5f:	f2 48 0f 2a c9       	cvtsi2sd %rcx,%xmm1
  403f64:	f2 0f 58 c9          	addsd  %xmm1,%xmm1
  403f68:	e9 9d fd ff ff       	jmpq   403d0a <sizeofHeapDesired+0x8a>
  403f6d:	0f 1f 00             	nopl   (%rax)
  403f70:	48 89 e9             	mov    %rbp,%rcx
  403f73:	48 89 ee             	mov    %rbp,%rsi
  403f76:	48 d1 e9             	shr    %rcx
  403f79:	83 e6 01             	and    $0x1,%esi
  403f7c:	48 09 f1             	or     %rsi,%rcx
  403f7f:	f2 48 0f 2a d1       	cvtsi2sd %rcx,%xmm2
  403f84:	f2 0f 58 d2          	addsd  %xmm2,%xmm2
  403f88:	e9 6f fd ff ff       	jmpq   403cfc <sizeofHeapDesired+0x7c>
  403f8d:	0f 1f 00             	nopl   (%rax)
  403f90:	f3 0f 10 83 9c 00 00 	movss  0x9c(%rbx),%xmm0
  403f97:	00 
  403f98:	48 89 d0             	mov    %rdx,%rax
  403f9b:	0f 5a c0             	cvtps2pd %xmm0,%xmm0
  403f9e:	66 0f 2e c8          	ucomisd %xmm0,%xmm1
  403fa2:	0f 83 f8 fd ff ff    	jae    403da0 <sizeofHeapDesired+0x120>
  403fa8:	4d 85 e4             	test   %r12,%r12
  403fab:	f2 0f 59 d0          	mulsd  %xmm0,%xmm2
  403faf:	0f 88 fb 00 00 00    	js     4040b0 <sizeofHeapDesired+0x430>
  403fb5:	f2 49 0f 2a c4       	cvtsi2sd %r12,%xmm0
  403fba:	66 0f 2e d0          	ucomisd %xmm0,%xmm2
  403fbe:	4c 89 e0             	mov    %r12,%rax
  403fc1:	0f 87 d9 fd ff ff    	ja     403da0 <sizeofHeapDesired+0x120>
  403fc7:	f2 0f 10 05 a1 60 01 	movsd  0x160a1(%rip),%xmm0        # 41a070 <_IO_stdin_used+0x1c50>
  403fce:	00 
  403fcf:	66 0f 2e d0          	ucomisd %xmm0,%xmm2
  403fd3:	0f 83 b7 00 00 00    	jae    404090 <sizeofHeapDesired+0x410>
  403fd9:	f2 48 0f 2c c2       	cvttsd2si %xmm2,%rax
  403fde:	4c 01 e8             	add    %r13,%rax
  403fe1:	4c 21 e0             	and    %r12,%rax
  403fe4:	e9 b7 fd ff ff       	jmpq   403da0 <sizeofHeapDesired+0x120>
  403fe9:	0f 1f 80 00 00 00 00 	nopl   0x0(%rax)
  403ff0:	48 89 ea             	mov    %rbp,%rdx
  403ff3:	48 89 e9             	mov    %rbp,%rcx
  403ff6:	48 d1 ea             	shr    %rdx
  403ff9:	83 e1 01             	and    $0x1,%ecx
  403ffc:	48 09 ca             	or     %rcx,%rdx
  403fff:	f3 48 0f 2a c2       	cvtsi2ss %rdx,%xmm0
  404004:	f3 0f 58 c0          	addss  %xmm0,%xmm0
  404008:	e9 36 fd ff ff       	jmpq   403d43 <sizeofHeapDesired+0xc3>
  40400d:	0f 1f 00             	nopl   (%rax)
  404010:	f3 0f 5c 05 b8 60 01 	subss  0x160b8(%rip),%xmm0        # 41a0d0 <_IO_stdin_used+0x1cb0>
  404017:	00 
  404018:	48 be 00 00 00 00 00 	movabs $0x8000000000000000,%rsi
  40401f:	00 00 80 
  404022:	f3 48 0f 2c c8       	cvttss2si %xmm0,%rcx
  404027:	48 31 f1             	xor    %rsi,%rcx
  40402a:	e9 49 fe ff ff       	jmpq   403e78 <sizeofHeapDesired+0x1f8>
  40402f:	90                   	nop
  404030:	48 89 c1             	mov    %rax,%rcx
  404033:	48 89 c6             	mov    %rax,%rsi
  404036:	48 d1 e9             	shr    %rcx
  404039:	83 e6 01             	and    $0x1,%esi
  40403c:	48 09 f1             	or     %rsi,%rcx
  40403f:	f2 48 0f 2a c9       	cvtsi2sd %rcx,%xmm1
  404044:	f2 0f 58 c9          	addsd  %xmm1,%xmm1
  404048:	e9 3c fe ff ff       	jmpq   403e89 <sizeofHeapDesired+0x209>
  40404d:	0f 1f 00             	nopl   (%rax)
  404050:	48 89 e9             	mov    %rbp,%rcx
  404053:	48 89 ee             	mov    %rbp,%rsi
  404056:	48 d1 e9             	shr    %rcx
  404059:	83 e6 01             	and    $0x1,%esi
  40405c:	48 09 f1             	or     %rsi,%rcx
  40405f:	f3 48 0f 2a c9       	cvtsi2ss %rcx,%xmm1
  404064:	f3 0f 58 c9          	addss  %xmm1,%xmm1
  404068:	e9 f5 fd ff ff       	jmpq   403e62 <sizeofHeapDesired+0x1e2>
  40406d:	0f 1f 00             	nopl   (%rax)
  404070:	48 89 d1             	mov    %rdx,%rcx
  404073:	48 89 d6             	mov    %rdx,%rsi
  404076:	48 d1 e9             	shr    %rcx
  404079:	83 e6 01             	and    $0x1,%esi
  40407c:	48 09 f1             	or     %rsi,%rcx
  40407f:	f2 48 0f 2a c1       	cvtsi2sd %rcx,%xmm0
  404084:	f2 0f 58 c0          	addsd  %xmm0,%xmm0
  404088:	e9 0a fe ff ff       	jmpq   403e97 <sizeofHeapDesired+0x217>
  40408d:	0f 1f 00             	nopl   (%rax)
  404090:	f2 0f 5c d0          	subsd  %xmm0,%xmm2
  404094:	48 ba 00 00 00 00 00 	movabs $0x8000000000000000,%rdx
  40409b:	00 00 80 
  40409e:	f2 48 0f 2c c2       	cvttsd2si %xmm2,%rax
  4040a3:	48 31 d0             	xor    %rdx,%rax
  4040a6:	e9 33 ff ff ff       	jmpq   403fde <sizeofHeapDesired+0x35e>
  4040ab:	0f 1f 44 00 00       	nopl   0x0(%rax,%rax,1)
  4040b0:	4c 89 e0             	mov    %r12,%rax
  4040b3:	4c 89 e2             	mov    %r12,%rdx
  4040b6:	48 d1 e8             	shr    %rax
  4040b9:	83 e2 01             	and    $0x1,%edx
  4040bc:	48 09 d0             	or     %rdx,%rax
  4040bf:	f2 48 0f 2a c0       	cvtsi2sd %rax,%xmm0
  4040c4:	f2 0f 58 c0          	addsd  %xmm0,%xmm0
  4040c8:	e9 ed fe ff ff       	jmpq   403fba <sizeofHeapDesired+0x33a>
  4040cd:	48 89 c7             	mov    %rax,%rdi
  4040d0:	e8 4b 00 01 00       	callq  414120 <uintmaxToCommaString>
  4040d5:	bf 00 88 41 00       	mov    $0x418800,%edi
  4040da:	48 89 c6             	mov    %rax,%rsi
  4040dd:	31 c0                	xor    %eax,%eax
  4040df:	e8 3c fd 00 00       	callq  413e20 <die>
  4040e4:	e8 37 00 01 00       	callq  414120 <uintmaxToCommaString>
  4040e9:	bf 30 88 41 00       	mov    $0x418830,%edi
  4040ee:	48 89 c6             	mov    %rax,%rsi
  4040f1:	31 c0                	xor    %eax,%eax
  4040f3:	e8 28 fd 00 00       	callq  413e20 <die>
  4040f8:	0f 1f 84 00 00 00 00 	nopl   0x0(%rax,%rax,1)
  4040ff:	00 

0000000000404100 <stringToBool>:
  404100:	48 89 f8             	mov    %rdi,%rax
  404103:	b9 06 00 00 00       	mov    $0x6,%ecx
  404108:	bf d1 9c 41 00       	mov    $0x419cd1,%edi
  40410d:	48 89 c6             	mov    %rax,%rsi
  404110:	f3 a6                	repz cmpsb %es:(%rdi),%ds:(%rsi)
  404112:	74 1c                	je     404130 <stringToBool+0x30>
  404114:	bf d7 9c 41 00       	mov    $0x419cd7,%edi
  404119:	b9 05 00 00 00       	mov    $0x5,%ecx
  40411e:	48 89 c6             	mov    %rax,%rsi
  404121:	f3 a6                	repz cmpsb %es:(%rdi),%ds:(%rsi)
  404123:	75 0e                	jne    404133 <stringToBool+0x33>
  404125:	b8 01 00 00 00       	mov    $0x1,%eax
  40412a:	c3                   	retq   
  40412b:	0f 1f 44 00 00       	nopl   0x0(%rax,%rax,1)
  404130:	31 c0                	xor    %eax,%eax
  404132:	c3                   	retq   
  404133:	52                   	push   %rdx
  404134:	48 89 c6             	mov    %rax,%rsi
  404137:	bf dc 9c 41 00       	mov    $0x419cdc,%edi
  40413c:	31 c0                	xor    %eax,%eax
  40413e:	e8 dd fc 00 00       	callq  413e20 <die>
  404143:	66 66 66 66 2e 0f 1f 	data32 data32 data32 nopw %cs:0x0(%rax,%rax,1)
  40414a:	84 00 00 00 00 00 

0000000000404150 <processAtMLton>:
  404150:	41 57                	push   %r15
  404152:	49 89 d7             	mov    %rdx,%r15
  404155:	41 56                	push   %r14
  404157:	41 55                	push   %r13
  404159:	41 54                	push   %r12
  40415b:	49 89 fc             	mov    %rdi,%r12
  40415e:	55                   	push   %rbp
  40415f:	89 f5                	mov    %esi,%ebp
  404161:	53                   	push   %rbx
  404162:	bb 01 00 00 00       	mov    $0x1,%ebx
  404167:	48 83 ec 18          	sub    $0x18,%rsp
  40416b:	48 89 0c 24          	mov    %rcx,(%rsp)
  40416f:	41 80 7c 24 7a 00    	cmpb   $0x0,0x7a(%r12)
  404175:	0f 84 bf 02 00 00    	je     40443a <processAtMLton+0x2ea>
  40417b:	39 eb                	cmp    %ebp,%ebx
  40417d:	0f 8d b7 02 00 00    	jge    40443a <processAtMLton+0x2ea>
  404183:	48 63 c3             	movslq %ebx,%rax
  404186:	bf 2a 84 41 00       	mov    $0x41842a,%edi
  40418b:	b9 07 00 00 00       	mov    $0x7,%ecx
  404190:	49 8b 34 c7          	mov    (%r15,%rax,8),%rsi
  404194:	f3 a6                	repz cmpsb %es:(%rdi),%ds:(%rsi)
  404196:	0f 85 9e 02 00 00    	jne    40443a <processAtMLton+0x2ea>
  40419c:	83 c3 01             	add    $0x1,%ebx
  40419f:	39 dd                	cmp    %ebx,%ebp
  4041a1:	0f 84 f9 00 00 00    	je     4042a0 <processAtMLton+0x150>
  4041a7:	41 bd f5 9c 41 00    	mov    $0x419cf5,%r13d
  4041ad:	eb 38                	jmp    4041e7 <processAtMLton+0x97>
  4041af:	90                   	nop
  4041b0:	8d 43 01             	lea    0x1(%rbx),%eax
  4041b3:	39 e8                	cmp    %ebp,%eax
  4041b5:	0f 84 c8 03 00 00    	je     404583 <processAtMLton+0x433>
  4041bb:	49 8b 7c 17 08       	mov    0x8(%r15,%rdx,1),%rdi
  4041c0:	83 c3 02             	add    $0x2,%ebx
  4041c3:	e8 58 f3 ff ff       	callq  403520 <stringToFloat>
  4041c8:	0f 2e 05 05 5f 01 00 	ucomiss 0x15f05(%rip),%xmm0        # 41a0d4 <_IO_stdin_used+0x1cb4>
  4041cf:	f3 41 0f 11 84 24 8c 	movss  %xmm0,0x8c(%r12)
  4041d6:	00 00 00 
  4041d9:	0f 86 98 03 00 00    	jbe    404577 <processAtMLton+0x427>
  4041df:	39 dd                	cmp    %ebx,%ebp
  4041e1:	0f 84 b9 00 00 00    	je     4042a0 <processAtMLton+0x150>
  4041e7:	48 63 c3             	movslq %ebx,%rax
  4041ea:	b9 18 00 00 00       	mov    $0x18,%ecx
  4041ef:	4c 89 ef             	mov    %r13,%rdi
  4041f2:	48 8d 14 c5 00 00 00 	lea    0x0(,%rax,8),%rdx
  4041f9:	00 
  4041fa:	49 8b 04 c7          	mov    (%r15,%rax,8),%rax
  4041fe:	48 89 c6             	mov    %rax,%rsi
  404201:	f3 a6                	repz cmpsb %es:(%rdi),%ds:(%rsi)
  404203:	74 ab                	je     4041b0 <processAtMLton+0x60>
  404205:	bf 0d 9d 41 00       	mov    $0x419d0d,%edi
  40420a:	b9 0b 00 00 00       	mov    $0xb,%ecx
  40420f:	48 89 c6             	mov    %rax,%rsi
  404212:	f3 a6                	repz cmpsb %es:(%rdi),%ds:(%rsi)
  404214:	75 3a                	jne    404250 <processAtMLton+0x100>
  404216:	8d 43 01             	lea    0x1(%rbx),%eax
  404219:	39 e8                	cmp    %ebp,%eax
  40421b:	0f 84 8d 03 00 00    	je     4045ae <processAtMLton+0x45e>
  404221:	49 8b 7c 17 08       	mov    0x8(%r15,%rdx,1),%rdi
  404226:	83 c3 02             	add    $0x2,%ebx
  404229:	e8 f2 f2 ff ff       	callq  403520 <stringToFloat>
  40422e:	0f 2e 05 9f 5e 01 00 	ucomiss 0x15e9f(%rip),%xmm0        # 41a0d4 <_IO_stdin_used+0x1cb4>
  404235:	f3 41 0f 11 84 24 88 	movss  %xmm0,0x88(%r12)
  40423c:	00 00 00 
  40423f:	77 9e                	ja     4041df <processAtMLton+0x8f>
  404241:	bf 50 89 41 00       	mov    $0x418950,%edi
  404246:	31 c0                	xor    %eax,%eax
  404248:	e8 d3 fb 00 00       	callq  413e20 <die>
  40424d:	0f 1f 00             	nopl   (%rax)
  404250:	bf 18 9d 41 00       	mov    $0x419d18,%edi
  404255:	b9 0b 00 00 00       	mov    $0xb,%ecx
  40425a:	48 89 c6             	mov    %rax,%rsi
  40425d:	f3 a6                	repz cmpsb %es:(%rdi),%ds:(%rsi)
  40425f:	75 4f                	jne    4042b0 <processAtMLton+0x160>
  404261:	8d 43 01             	lea    0x1(%rbx),%eax
  404264:	39 e8                	cmp    %ebp,%eax
  404266:	0f 84 34 04 00 00    	je     4046a0 <processAtMLton+0x550>
  40426c:	49 8b 84 24 68 06 00 	mov    0x668(%r12),%rax
  404273:	00 
  404274:	49 8b 7c 17 08       	mov    0x8(%r15,%rdx,1),%rdi
  404279:	83 c3 02             	add    $0x2,%ebx
  40427c:	4c 8d 34 00          	lea    (%rax,%rax,1),%r14
  404280:	e8 8b f1 ff ff       	callq  403410 <stringToBytes>
  404285:	4c 89 f1             	mov    %r14,%rcx
  404288:	49 8d 44 06 ff       	lea    -0x1(%r14,%rax,1),%rax
  40428d:	48 f7 d9             	neg    %rcx
  404290:	48 21 c8             	and    %rcx,%rax
  404293:	39 dd                	cmp    %ebx,%ebp
  404295:	49 89 44 24 68       	mov    %rax,0x68(%r12)
  40429a:	0f 85 47 ff ff ff    	jne    4041e7 <processAtMLton+0x97>
  4042a0:	bf 80 88 41 00       	mov    $0x418880,%edi
  4042a5:	31 c0                	xor    %eax,%eax
  4042a7:	e8 74 fb 00 00       	callq  413e20 <die>
  4042ac:	0f 1f 40 00          	nopl   0x0(%rax)
  4042b0:	bf 23 9d 41 00       	mov    $0x419d23,%edi
  4042b5:	b9 0c 00 00 00       	mov    $0xc,%ecx
  4042ba:	48 89 c6             	mov    %rax,%rsi
  4042bd:	f3 a6                	repz cmpsb %es:(%rdi),%ds:(%rsi)
  4042bf:	75 0f                	jne    4042d0 <processAtMLton+0x180>
  4042c1:	83 c3 01             	add    $0x1,%ebx
  4042c4:	41 c6 44 24 7b 01    	movb   $0x1,0x7b(%r12)
  4042ca:	e9 10 ff ff ff       	jmpq   4041df <processAtMLton+0x8f>
  4042cf:	90                   	nop
  4042d0:	bf 2f 9d 41 00       	mov    $0x419d2f,%edi
  4042d5:	b9 0b 00 00 00       	mov    $0xb,%ecx
  4042da:	48 89 c6             	mov    %rax,%rsi
  4042dd:	f3 a6                	repz cmpsb %es:(%rdi),%ds:(%rsi)
  4042df:	75 17                	jne    4042f8 <processAtMLton+0x1a8>
  4042e1:	83 c3 01             	add    $0x1,%ebx
  4042e4:	41 c6 84 24 c5 00 00 	movb   $0x1,0xc5(%r12)
  4042eb:	00 01 
  4042ed:	e9 ed fe ff ff       	jmpq   4041df <processAtMLton+0x8f>
  4042f2:	66 0f 1f 44 00 00    	nopw   0x0(%rax,%rax,1)
  4042f8:	bf e5 9d 41 00       	mov    $0x419de5,%edi
  4042fd:	b9 0b 00 00 00       	mov    $0xb,%ecx
  404302:	48 89 c6             	mov    %rax,%rsi
  404305:	f3 a6                	repz cmpsb %es:(%rdi),%ds:(%rsi)
  404307:	75 3f                	jne    404348 <processAtMLton+0x1f8>
  404309:	8d 43 01             	lea    0x1(%rbx),%eax
  40430c:	39 e8                	cmp    %ebp,%eax
  40430e:	0f 84 1b 03 00 00    	je     40462f <processAtMLton+0x4df>
  404314:	49 8b 7c 17 08       	mov    0x8(%r15,%rdx,1),%rdi
  404319:	83 c3 02             	add    $0x2,%ebx
  40431c:	e8 ff f1 ff ff       	callq  403520 <stringToFloat>
  404321:	0f 2e 05 ac 5d 01 00 	ucomiss 0x15dac(%rip),%xmm0        # 41a0d4 <_IO_stdin_used+0x1cb4>
  404328:	f3 41 0f 11 84 24 90 	movss  %xmm0,0x90(%r12)
  40432f:	00 00 00 
  404332:	0f 87 a7 fe ff ff    	ja     4041df <processAtMLton+0x8f>
  404338:	bf d8 89 41 00       	mov    $0x4189d8,%edi
  40433d:	31 c0                	xor    %eax,%eax
  40433f:	e8 dc fa 00 00       	callq  413e20 <die>
  404344:	0f 1f 40 00          	nopl   0x0(%rax)
  404348:	bf 3a 9d 41 00       	mov    $0x419d3a,%edi
  40434d:	b9 0a 00 00 00       	mov    $0xa,%ecx
  404352:	48 89 c6             	mov    %rax,%rsi
  404355:	f3 a6                	repz cmpsb %es:(%rdi),%ds:(%rsi)
  404357:	75 4f                	jne    4043a8 <processAtMLton+0x258>
  404359:	8d 43 01             	lea    0x1(%rbx),%eax
  40435c:	39 e8                	cmp    %ebp,%eax
  40435e:	0f 84 fb 02 00 00    	je     40465f <processAtMLton+0x50f>
  404364:	49 8b 7c 17 08       	mov    0x8(%r15,%rdx,1),%rdi
  404369:	83 c3 02             	add    $0x2,%ebx
  40436c:	e8 af f1 ff ff       	callq  403520 <stringToFloat>
  404371:	0f 2e 05 60 5d 01 00 	ucomiss 0x15d60(%rip),%xmm0        # 41a0d8 <_IO_stdin_used+0x1cb8>
  404378:	f3 41 0f 11 84 24 94 	movss  %xmm0,0x94(%r12)
  40437f:	00 00 00 
  404382:	72 11                	jb     404395 <processAtMLton+0x245>
  404384:	f3 0f 10 0d 48 5d 01 	movss  0x15d48(%rip),%xmm1        # 41a0d4 <_IO_stdin_used+0x1cb4>
  40438b:	00 
  40438c:	0f 2e c8             	ucomiss %xmm0,%xmm1
  40438f:	0f 83 4a fe ff ff    	jae    4041df <processAtMLton+0x8f>
  404395:	bf 38 8a 41 00       	mov    $0x418a38,%edi
  40439a:	31 c0                	xor    %eax,%eax
  40439c:	e8 7f fa 00 00       	callq  413e20 <die>
  4043a1:	0f 1f 80 00 00 00 00 	nopl   0x0(%rax)
  4043a8:	bf 44 9d 41 00       	mov    $0x419d44,%edi
  4043ad:	b9 0b 00 00 00       	mov    $0xb,%ecx
  4043b2:	48 89 c6             	mov    %rax,%rsi
  4043b5:	f3 a6                	repz cmpsb %es:(%rdi),%ds:(%rsi)
  4043b7:	75 3f                	jne    4043f8 <processAtMLton+0x2a8>
  4043b9:	8d 43 01             	lea    0x1(%rbx),%eax
  4043bc:	39 e8                	cmp    %ebp,%eax
  4043be:	0f 84 8f 02 00 00    	je     404653 <processAtMLton+0x503>
  4043c4:	49 8b 7c 17 08       	mov    0x8(%r15,%rdx,1),%rdi
  4043c9:	83 c3 02             	add    $0x2,%ebx
  4043cc:	e8 4f f1 ff ff       	callq  403520 <stringToFloat>
  4043d1:	0f 2e 05 fc 5c 01 00 	ucomiss 0x15cfc(%rip),%xmm0        # 41a0d4 <_IO_stdin_used+0x1cb4>
  4043d8:	f3 41 0f 11 84 24 98 	movss  %xmm0,0x98(%r12)
  4043df:	00 00 00 
  4043e2:	0f 87 f7 fd ff ff    	ja     4041df <processAtMLton+0x8f>
  4043e8:	bf 98 8a 41 00       	mov    $0x418a98,%edi
  4043ed:	31 c0                	xor    %eax,%eax
  4043ef:	e8 2c fa 00 00       	callq  413e20 <die>
  4043f4:	0f 1f 40 00          	nopl   0x0(%rax)
  4043f8:	bf 90 9d 41 00       	mov    $0x419d90,%edi
  4043fd:	b9 0b 00 00 00       	mov    $0xb,%ecx
  404402:	48 89 c6             	mov    %rax,%rsi
  404405:	f3 a6                	repz cmpsb %es:(%rdi),%ds:(%rsi)
  404407:	75 42                	jne    40444b <processAtMLton+0x2fb>
  404409:	41 80 7c 24 78 00    	cmpb   $0x0,0x78(%r12)
  40440f:	0f 84 0e 02 00 00    	je     404623 <processAtMLton+0x4d3>
  404415:	8d 43 01             	lea    0x1(%rbx),%eax
  404418:	41 c6 44 24 31 00    	movb   $0x0,0x31(%r12)
  40441e:	39 e8                	cmp    %ebp,%eax
  404420:	0f 84 f1 01 00 00    	je     404617 <processAtMLton+0x4c7>
  404426:	49 8b 44 17 08       	mov    0x8(%r15,%rdx,1),%rax
  40442b:	48 8b 14 24          	mov    (%rsp),%rdx
  40442f:	83 c3 02             	add    $0x2,%ebx
  404432:	48 89 02             	mov    %rax,(%rdx)
  404435:	e9 a5 fd ff ff       	jmpq   4041df <processAtMLton+0x8f>
  40443a:	48 83 c4 18          	add    $0x18,%rsp
  40443e:	89 d8                	mov    %ebx,%eax
  404440:	5b                   	pop    %rbx
  404441:	5d                   	pop    %rbp
  404442:	41 5c                	pop    %r12
  404444:	41 5d                	pop    %r13
  404446:	41 5e                	pop    %r14
  404448:	41 5f                	pop    %r15
  40444a:	c3                   	retq   
  40444b:	bf f8 8a 41 00       	mov    $0x418af8,%edi
  404450:	b9 20 00 00 00       	mov    $0x20,%ecx
  404455:	48 89 c6             	mov    %rax,%rsi
  404458:	f3 a6                	repz cmpsb %es:(%rdi),%ds:(%rsi)
  40445a:	74 54                	je     4044b0 <processAtMLton+0x360>
  40445c:	bf 63 9d 41 00       	mov    $0x419d63,%edi
  404461:	b9 13 00 00 00       	mov    $0x13,%ecx
  404466:	48 89 c6             	mov    %rax,%rsi
  404469:	f3 a6                	repz cmpsb %es:(%rdi),%ds:(%rsi)
  40446b:	0f 85 7f 00 00 00    	jne    4044f0 <processAtMLton+0x3a0>
  404471:	8d 43 01             	lea    0x1(%rbx),%eax
  404474:	39 e8                	cmp    %ebp,%eax
  404476:	0f 84 bf 01 00 00    	je     40463b <processAtMLton+0x4eb>
  40447c:	49 8b 7c 17 08       	mov    0x8(%r15,%rdx,1),%rdi
  404481:	83 c3 02             	add    $0x2,%ebx
  404484:	e8 97 f0 ff ff       	callq  403520 <stringToFloat>
  404489:	0f 2e 05 44 5c 01 00 	ucomiss 0x15c44(%rip),%xmm0        # 41a0d4 <_IO_stdin_used+0x1cb4>
  404490:	f3 41 0f 11 84 24 9c 	movss  %xmm0,0x9c(%r12)
  404497:	00 00 00 
  40449a:	0f 87 3f fd ff ff    	ja     4041df <processAtMLton+0x8f>
  4044a0:	bf d8 8b 41 00       	mov    $0x418bd8,%edi
  4044a5:	31 c0                	xor    %eax,%eax
  4044a7:	e8 74 f9 00 00       	callq  413e20 <die>
  4044ac:	0f 1f 40 00          	nopl   0x0(%rax)
  4044b0:	8d 43 01             	lea    0x1(%rbx),%eax
  4044b3:	39 e8                	cmp    %ebp,%eax
  4044b5:	0f 84 8c 01 00 00    	je     404647 <processAtMLton+0x4f7>
  4044bb:	49 8b 7c 17 08       	mov    0x8(%r15,%rdx,1),%rdi
  4044c0:	83 c3 02             	add    $0x2,%ebx
  4044c3:	e8 58 f0 ff ff       	callq  403520 <stringToFloat>
  4044c8:	0f 2e 05 05 5c 01 00 	ucomiss 0x15c05(%rip),%xmm0        # 41a0d4 <_IO_stdin_used+0x1cb4>
  4044cf:	f3 41 0f 11 84 24 a0 	movss  %xmm0,0xa0(%r12)
  4044d6:	00 00 00 
  4044d9:	0f 87 00 fd ff ff    	ja     4041df <processAtMLton+0x8f>
  4044df:	bf 58 8b 41 00       	mov    $0x418b58,%edi
  4044e4:	31 c0                	xor    %eax,%eax
  4044e6:	e8 35 f9 00 00       	callq  413e20 <die>
  4044eb:	0f 1f 44 00 00       	nopl   0x0(%rax,%rax,1)
  4044f0:	bf 76 9d 41 00       	mov    $0x419d76,%edi
  4044f5:	b9 09 00 00 00       	mov    $0x9,%ecx
  4044fa:	48 89 c6             	mov    %rax,%rsi
  4044fd:	f3 a6                	repz cmpsb %es:(%rdi),%ds:(%rsi)
  4044ff:	74 33                	je     404534 <processAtMLton+0x3e4>
  404501:	bf 7f 9d 41 00       	mov    $0x419d7f,%edi
  404506:	b9 0e 00 00 00       	mov    $0xe,%ecx
  40450b:	48 89 c6             	mov    %rax,%rsi
  40450e:	f3 a6                	repz cmpsb %es:(%rdi),%ds:(%rsi)
  404510:	75 7d                	jne    40458f <processAtMLton+0x43f>
  404512:	8d 43 01             	lea    0x1(%rbx),%eax
  404515:	39 e8                	cmp    %ebp,%eax
  404517:	0f 84 ee 00 00 00    	je     40460b <processAtMLton+0x4bb>
  40451d:	49 8b 7c 17 08       	mov    0x8(%r15,%rdx,1),%rdi
  404522:	83 c3 02             	add    $0x2,%ebx
  404525:	e8 d6 fb ff ff       	callq  404100 <stringToBool>
  40452a:	41 88 44 24 79       	mov    %al,0x79(%r12)
  40452f:	e9 ab fc ff ff       	jmpq   4041df <processAtMLton+0x8f>
  404534:	8d 43 01             	lea    0x1(%rbx),%eax
  404537:	39 e8                	cmp    %ebp,%eax
  404539:	0f 84 79 01 00 00    	je     4046b8 <processAtMLton+0x568>
  40453f:	49 8b 84 24 68 06 00 	mov    0x668(%r12),%rax
  404546:	00 
  404547:	49 8b 7c 17 08       	mov    0x8(%r15,%rdx,1),%rdi
  40454c:	83 c3 02             	add    $0x2,%ebx
  40454f:	48 8d 0c 00          	lea    (%rax,%rax,1),%rcx
  404553:	48 89 4c 24 08       	mov    %rcx,0x8(%rsp)
  404558:	e8 b3 ee ff ff       	callq  403410 <stringToBytes>
  40455d:	48 8b 4c 24 08       	mov    0x8(%rsp),%rcx
  404562:	48 8d 44 01 ff       	lea    -0x1(%rcx,%rax,1),%rax
  404567:	48 f7 d9             	neg    %rcx
  40456a:	48 21 c8             	and    %rcx,%rax
  40456d:	49 89 44 24 70       	mov    %rax,0x70(%r12)
  404572:	e9 68 fc ff ff       	jmpq   4041df <processAtMLton+0x8f>
  404577:	bf e0 88 41 00       	mov    $0x4188e0,%edi
  40457c:	31 c0                	xor    %eax,%eax
  40457e:	e8 9d f8 00 00       	callq  413e20 <die>
  404583:	bf a8 88 41 00       	mov    $0x4188a8,%edi
  404588:	31 c0                	xor    %eax,%eax
  40458a:	e8 91 f8 00 00       	callq  413e20 <die>
  40458f:	bf 8d 9d 41 00       	mov    $0x419d8d,%edi
  404594:	b9 0e 00 00 00       	mov    $0xe,%ecx
  404599:	48 89 c6             	mov    %rax,%rsi
  40459c:	f3 a6                	repz cmpsb %es:(%rdi),%ds:(%rsi)
  40459e:	75 1a                	jne    4045ba <processAtMLton+0x46a>
  4045a0:	83 c3 01             	add    $0x1,%ebx
  4045a3:	41 c6 44 24 78 00    	movb   $0x0,0x78(%r12)
  4045a9:	e9 31 fc ff ff       	jmpq   4041df <processAtMLton+0x8f>
  4045ae:	bf 28 89 41 00       	mov    $0x418928,%edi
  4045b3:	31 c0                	xor    %eax,%eax
  4045b5:	e8 66 f8 00 00       	callq  413e20 <die>
  4045ba:	bf 9b 9d 41 00       	mov    $0x419d9b,%edi
  4045bf:	b9 0e 00 00 00       	mov    $0xe,%ecx
  4045c4:	48 89 c6             	mov    %rax,%rsi
  4045c7:	f3 a6                	repz cmpsb %es:(%rdi),%ds:(%rsi)
  4045c9:	0f 85 9c 00 00 00    	jne    40466b <processAtMLton+0x51b>
  4045cf:	8d 43 01             	lea    0x1(%rbx),%eax
  4045d2:	39 e8                	cmp    %ebp,%eax
  4045d4:	0f 84 d2 00 00 00    	je     4046ac <processAtMLton+0x55c>
  4045da:	48 98                	cltq   
  4045dc:	83 c3 02             	add    $0x2,%ebx
  4045df:	49 8b 3c c7          	mov    (%r15,%rax,8),%rdi
  4045e3:	e8 38 ef ff ff       	callq  403520 <stringToFloat>
  4045e8:	0f 2e 05 e5 5a 01 00 	ucomiss 0x15ae5(%rip),%xmm0        # 41a0d4 <_IO_stdin_used+0x1cb4>
  4045ef:	f3 41 0f 11 84 24 a4 	movss  %xmm0,0xa4(%r12)
  4045f6:	00 00 00 
  4045f9:	0f 87 e0 fb ff ff    	ja     4041df <processAtMLton+0x8f>
  4045ff:	bf 90 8c 41 00       	mov    $0x418c90,%edi
  404604:	31 c0                	xor    %eax,%eax
  404606:	e8 15 f8 00 00       	callq  413e20 <die>
  40460b:	bf 40 8c 41 00       	mov    $0x418c40,%edi
  404610:	31 c0                	xor    %eax,%eax
  404612:	e8 09 f8 00 00       	callq  413e20 <die>
  404617:	bf d0 8a 41 00       	mov    $0x418ad0,%edi
  40461c:	31 c0                	xor    %eax,%eax
  40461e:	e8 fd f7 00 00       	callq  413e20 <die>
  404623:	bf 4f 9d 41 00       	mov    $0x419d4f,%edi
  404628:	31 c0                	xor    %eax,%eax
  40462a:	e8 f1 f7 00 00       	callq  413e20 <die>
  40462f:	bf b0 89 41 00       	mov    $0x4189b0,%edi
  404634:	31 c0                	xor    %eax,%eax
  404636:	e8 e5 f7 00 00       	callq  413e20 <die>
  40463b:	bf a8 8b 41 00       	mov    $0x418ba8,%edi
  404640:	31 c0                	xor    %eax,%eax
  404642:	e8 d9 f7 00 00       	callq  413e20 <die>
  404647:	bf 18 8b 41 00       	mov    $0x418b18,%edi
  40464c:	31 c0                	xor    %eax,%eax
  40464e:	e8 cd f7 00 00       	callq  413e20 <die>
  404653:	bf 70 8a 41 00       	mov    $0x418a70,%edi
  404658:	31 c0                	xor    %eax,%eax
  40465a:	e8 c1 f7 00 00       	callq  413e20 <die>
  40465f:	bf 10 8a 41 00       	mov    $0x418a10,%edi
  404664:	31 c0                	xor    %eax,%eax
  404666:	e8 b5 f7 00 00       	callq  413e20 <die>
  40466b:	bf a9 9d 41 00       	mov    $0x419da9,%edi
  404670:	b9 09 00 00 00       	mov    $0x9,%ecx
  404675:	48 89 c6             	mov    %rax,%rsi
  404678:	f3 a6                	repz cmpsb %es:(%rdi),%ds:(%rsi)
  40467a:	75 54                	jne    4046d0 <processAtMLton+0x580>
  40467c:	8d 43 01             	lea    0x1(%rbx),%eax
  40467f:	39 e8                	cmp    %ebp,%eax
  404681:	74 41                	je     4046c4 <processAtMLton+0x574>
  404683:	48 98                	cltq   
  404685:	83 c3 02             	add    $0x2,%ebx
  404688:	49 8b 3c c7          	mov    (%r15,%rax,8),%rdi
  40468c:	e8 8f ee ff ff       	callq  403520 <stringToFloat>
  404691:	f3 41 0f 11 84 24 a8 	movss  %xmm0,0xa8(%r12)
  404698:	00 00 00 
  40469b:	e9 3f fb ff ff       	jmpq   4041df <processAtMLton+0x8f>
  4046a0:	bf 88 89 41 00       	mov    $0x418988,%edi
  4046a5:	31 c0                	xor    %eax,%eax
  4046a7:	e8 74 f7 00 00       	callq  413e20 <die>
  4046ac:	bf 68 8c 41 00       	mov    $0x418c68,%edi
  4046b1:	31 c0                	xor    %eax,%eax
  4046b3:	e8 68 f7 00 00       	callq  413e20 <die>
  4046b8:	bf 18 8c 41 00       	mov    $0x418c18,%edi
  4046bd:	31 c0                	xor    %eax,%eax
  4046bf:	e8 5c f7 00 00       	callq  413e20 <die>
  4046c4:	bf c8 8c 41 00       	mov    $0x418cc8,%edi
  4046c9:	31 c0                	xor    %eax,%eax
  4046cb:	e8 50 f7 00 00       	callq  413e20 <die>
  4046d0:	bf b2 9d 41 00       	mov    $0x419db2,%edi
  4046d5:	b9 0d 00 00 00       	mov    $0xd,%ecx
  4046da:	48 89 c6             	mov    %rax,%rsi
  4046dd:	f3 a6                	repz cmpsb %es:(%rdi),%ds:(%rsi)
  4046df:	74 23                	je     404704 <processAtMLton+0x5b4>
  4046e1:	bf d2 9d 41 00       	mov    $0x419dd2,%edi
  4046e6:	b9 05 00 00 00       	mov    $0x5,%ecx
  4046eb:	48 89 c6             	mov    %rax,%rsi
  4046ee:	f3 a6                	repz cmpsb %es:(%rdi),%ds:(%rsi)
  4046f0:	0f 85 69 01 00 00    	jne    40485f <processAtMLton+0x70f>
  4046f6:	83 c3 01             	add    $0x1,%ebx
  4046f9:	41 c6 44 24 7a 00    	movb   $0x0,0x7a(%r12)
  4046ff:	e9 db fa ff ff       	jmpq   4041df <processAtMLton+0x8f>
  404704:	41 8b 94 24 68 04 00 	mov    0x468(%r12),%edx
  40470b:	00 
  40470c:	48 8b 3d cd 8f 21 00 	mov    0x218fcd(%rip),%rdi        # 61d6e0 <stdout@@GLIBC_2.2.5>
  404713:	be bf 9d 41 00       	mov    $0x419dbf,%esi
  404718:	31 c0                	xor    %eax,%eax
  40471a:	31 db                	xor    %ebx,%ebx
  40471c:	e8 4f cf ff ff       	callq  401670 <fprintf@plt>
  404721:	41 8b 94 24 30 06 00 	mov    0x630(%r12),%edx
  404728:	00 
  404729:	48 8b 3d b0 8f 21 00 	mov    0x218fb0(%rip),%rdi        # 61d6e0 <stdout@@GLIBC_2.2.5>
  404730:	31 c0                	xor    %eax,%eax
  404732:	be ca 9d 41 00       	mov    $0x419dca,%esi
  404737:	e8 34 cf ff ff       	callq  401670 <fprintf@plt>
  40473c:	45 8b 84 24 30 06 00 	mov    0x630(%r12),%r8d
  404743:	00 
  404744:	45 85 c0             	test   %r8d,%r8d
  404747:	74 2e                	je     404777 <processAtMLton+0x627>
  404749:	49 8b 84 24 28 06 00 	mov    0x628(%r12),%rax
  404750:	00 
  404751:	89 da                	mov    %ebx,%edx
  404753:	48 8b 3d 86 8f 21 00 	mov    0x218f86(%rip),%rdi        # 61d6e0 <stdout@@GLIBC_2.2.5>
  40475a:	be 15 9f 41 00       	mov    $0x419f15,%esi
  40475f:	83 c3 01             	add    $0x1,%ebx
  404762:	48 8b 14 d0          	mov    (%rax,%rdx,8),%rdx
  404766:	31 c0                	xor    %eax,%eax
  404768:	e8 03 cf ff ff       	callq  401670 <fprintf@plt>
  40476d:	41 3b 9c 24 30 06 00 	cmp    0x630(%r12),%ebx
  404774:	00 
  404775:	72 d2                	jb     404749 <processAtMLton+0x5f9>
  404777:	48 8b 3d 62 8f 21 00 	mov    0x218f62(%rip),%rdi        # 61d6e0 <stdout@@GLIBC_2.2.5>
  40477e:	41 8b 94 24 50 06 00 	mov    0x650(%r12),%edx
  404785:	00 
  404786:	31 c0                	xor    %eax,%eax
  404788:	be ca 9d 41 00       	mov    $0x419dca,%esi
  40478d:	31 db                	xor    %ebx,%ebx
  40478f:	e8 dc ce ff ff       	callq  401670 <fprintf@plt>
  404794:	41 8b bc 24 50 06 00 	mov    0x650(%r12),%edi
  40479b:	00 
  40479c:	85 ff                	test   %edi,%edi
  40479e:	74 33                	je     4047d3 <processAtMLton+0x683>
  4047a0:	49 8b 84 24 48 06 00 	mov    0x648(%r12),%rax
  4047a7:	00 
  4047a8:	89 da                	mov    %ebx,%edx
  4047aa:	48 8b 3d 2f 8f 21 00 	mov    0x218f2f(%rip),%rdi        # 61d6e0 <stdout@@GLIBC_2.2.5>
  4047b1:	be c7 9d 41 00       	mov    $0x419dc7,%esi
  4047b6:	83 c3 01             	add    $0x1,%ebx
  4047b9:	48 8d 04 d0          	lea    (%rax,%rdx,8),%rax
  4047bd:	8b 48 04             	mov    0x4(%rax),%ecx
  4047c0:	8b 10                	mov    (%rax),%edx
  4047c2:	31 c0                	xor    %eax,%eax
  4047c4:	e8 a7 ce ff ff       	callq  401670 <fprintf@plt>
  4047c9:	41 3b 9c 24 50 06 00 	cmp    0x650(%r12),%ebx
  4047d0:	00 
  4047d1:	72 cd                	jb     4047a0 <processAtMLton+0x650>
  4047d3:	41 8b 94 24 40 06 00 	mov    0x640(%r12),%edx
  4047da:	00 
  4047db:	48 8b 3d fe 8e 21 00 	mov    0x218efe(%rip),%rdi        # 61d6e0 <stdout@@GLIBC_2.2.5>
  4047e2:	be ca 9d 41 00       	mov    $0x419dca,%esi
  4047e7:	31 c0                	xor    %eax,%eax
  4047e9:	31 db                	xor    %ebx,%ebx
  4047eb:	e8 80 ce ff ff       	callq  401670 <fprintf@plt>
  4047f0:	41 8b b4 24 40 06 00 	mov    0x640(%r12),%esi
  4047f7:	00 
  4047f8:	85 f6                	test   %esi,%esi
  4047fa:	74 5c                	je     404858 <processAtMLton+0x708>
  4047fc:	49 8b 84 24 38 06 00 	mov    0x638(%r12),%rax
  404803:	00 
  404804:	89 da                	mov    %ebx,%edx
  404806:	bd 01 00 00 00       	mov    $0x1,%ebp
  40480b:	4c 8b 2c d0          	mov    (%rax,%rdx,8),%r13
  40480f:	41 8b 4d 00          	mov    0x0(%r13),%ecx
  404813:	85 c9                	test   %ecx,%ecx
  404815:	74 23                	je     40483a <processAtMLton+0x6ea>
  404817:	89 e8                	mov    %ebp,%eax
  404819:	48 8b 3d c0 8e 21 00 	mov    0x218ec0(%rip),%rdi        # 61d6e0 <stdout@@GLIBC_2.2.5>
  404820:	be ce 9d 41 00       	mov    $0x419dce,%esi
  404825:	41 8b 54 85 00       	mov    0x0(%r13,%rax,4),%edx
  40482a:	31 c0                	xor    %eax,%eax
  40482c:	83 c5 01             	add    $0x1,%ebp
  40482f:	e8 3c ce ff ff       	callq  401670 <fprintf@plt>
  404834:	41 3b 6d 00          	cmp    0x0(%r13),%ebp
  404838:	76 dd                	jbe    404817 <processAtMLton+0x6c7>
  40483a:	48 8b 35 9f 8e 21 00 	mov    0x218e9f(%rip),%rsi        # 61d6e0 <stdout@@GLIBC_2.2.5>
  404841:	bf 0a 00 00 00       	mov    $0xa,%edi
  404846:	83 c3 01             	add    $0x1,%ebx
  404849:	e8 d2 cd ff ff       	callq  401620 <fputc@plt>
  40484e:	41 3b 9c 24 40 06 00 	cmp    0x640(%r12),%ebx
  404855:	00 
  404856:	72 a4                	jb     4047fc <processAtMLton+0x6ac>
  404858:	31 ff                	xor    %edi,%edi
  40485a:	e8 d1 cf ff ff       	callq  401830 <exit@plt>
  40485f:	bf d7 9d 41 00       	mov    $0x419dd7,%edi
  404864:	b9 19 00 00 00       	mov    $0x19,%ecx
  404869:	48 89 c6             	mov    %rax,%rsi
  40486c:	f3 a6                	repz cmpsb %es:(%rdi),%ds:(%rsi)
  40486e:	75 44                	jne    4048b4 <processAtMLton+0x764>
  404870:	8d 43 01             	lea    0x1(%rbx),%eax
  404873:	39 e8                	cmp    %ebp,%eax
  404875:	74 31                	je     4048a8 <processAtMLton+0x758>
  404877:	48 98                	cltq   
  404879:	83 c3 02             	add    $0x2,%ebx
  40487c:	49 8b 3c c7          	mov    (%r15,%rax,8),%rdi
  404880:	e8 9b ec ff ff       	callq  403520 <stringToFloat>
  404885:	0f 2e 05 48 58 01 00 	ucomiss 0x15848(%rip),%xmm0        # 41a0d4 <_IO_stdin_used+0x1cb4>
  40488c:	f3 41 0f 11 84 24 ac 	movss  %xmm0,0xac(%r12)
  404893:	00 00 00 
  404896:	0f 87 43 f9 ff ff    	ja     4041df <processAtMLton+0x8f>
  40489c:	bf 28 8d 41 00       	mov    $0x418d28,%edi
  4048a1:	31 c0                	xor    %eax,%eax
  4048a3:	e8 78 f5 00 00       	callq  413e20 <die>
  4048a8:	bf f0 8c 41 00       	mov    $0x418cf0,%edi
  4048ad:	31 c0                	xor    %eax,%eax
  4048af:	e8 6c f5 00 00       	callq  413e20 <die>
  4048b4:	bf 68 8d 41 00       	mov    $0x418d68,%edi
  4048b9:	b9 21 00 00 00       	mov    $0x21,%ecx
  4048be:	48 89 c6             	mov    %rax,%rsi
  4048c1:	f3 a6                	repz cmpsb %es:(%rdi),%ds:(%rsi)
  4048c3:	75 44                	jne    404909 <processAtMLton+0x7b9>
  4048c5:	8d 43 01             	lea    0x1(%rbx),%eax
  4048c8:	39 e8                	cmp    %ebp,%eax
  4048ca:	74 31                	je     4048fd <processAtMLton+0x7ad>
  4048cc:	48 98                	cltq   
  4048ce:	83 c3 02             	add    $0x2,%ebx
  4048d1:	49 8b 3c c7          	mov    (%r15,%rax,8),%rdi
  4048d5:	e8 46 ec ff ff       	callq  403520 <stringToFloat>
  4048da:	0f 2e 05 f3 57 01 00 	ucomiss 0x157f3(%rip),%xmm0        # 41a0d4 <_IO_stdin_used+0x1cb4>
  4048e1:	f3 41 0f 11 84 24 b0 	movss  %xmm0,0xb0(%r12)
  4048e8:	00 00 00 
  4048eb:	0f 87 ee f8 ff ff    	ja     4041df <processAtMLton+0x8f>
  4048f1:	bf d0 8d 41 00       	mov    $0x418dd0,%edi
  4048f6:	31 c0                	xor    %eax,%eax
  4048f8:	e8 23 f5 00 00       	callq  413e20 <die>
  4048fd:	bf 90 8d 41 00       	mov    $0x418d90,%edi
  404902:	31 c0                	xor    %eax,%eax
  404904:	e8 17 f5 00 00       	callq  413e20 <die>
  404909:	bf 18 8e 41 00       	mov    $0x418e18,%edi
  40490e:	b9 24 00 00 00       	mov    $0x24,%ecx
  404913:	48 89 c6             	mov    %rax,%rsi
  404916:	f3 a6                	repz cmpsb %es:(%rdi),%ds:(%rsi)
  404918:	75 44                	jne    40495e <processAtMLton+0x80e>
  40491a:	8d 43 01             	lea    0x1(%rbx),%eax
  40491d:	39 e8                	cmp    %ebp,%eax
  40491f:	74 31                	je     404952 <processAtMLton+0x802>
  404921:	48 98                	cltq   
  404923:	83 c3 02             	add    $0x2,%ebx
  404926:	49 8b 3c c7          	mov    (%r15,%rax,8),%rdi
  40492a:	e8 f1 eb ff ff       	callq  403520 <stringToFloat>
  40492f:	0f 2e 05 9e 57 01 00 	ucomiss 0x1579e(%rip),%xmm0        # 41a0d4 <_IO_stdin_used+0x1cb4>
  404936:	f3 41 0f 11 84 24 b4 	movss  %xmm0,0xb4(%r12)
  40493d:	00 00 00 
  404940:	0f 87 99 f8 ff ff    	ja     4041df <processAtMLton+0x8f>
  404946:	bf 80 8e 41 00       	mov    $0x418e80,%edi
  40494b:	31 c0                	xor    %eax,%eax
  40494d:	e8 ce f4 00 00       	callq  413e20 <die>
  404952:	bf 40 8e 41 00       	mov    $0x418e40,%edi
  404957:	31 c0                	xor    %eax,%eax
  404959:	e8 c2 f4 00 00       	callq  413e20 <die>
  40495e:	bf f0 9d 41 00       	mov    $0x419df0,%edi
  404963:	b9 1b 00 00 00       	mov    $0x1b,%ecx
  404968:	48 89 c6             	mov    %rax,%rsi
  40496b:	f3 a6                	repz cmpsb %es:(%rdi),%ds:(%rsi)
  40496d:	75 50                	jne    4049bf <processAtMLton+0x86f>
  40496f:	8d 43 01             	lea    0x1(%rbx),%eax
  404972:	39 e8                	cmp    %ebp,%eax
  404974:	74 3d                	je     4049b3 <processAtMLton+0x863>
  404976:	48 98                	cltq   
  404978:	83 c3 02             	add    $0x2,%ebx
  40497b:	49 8b 3c c7          	mov    (%r15,%rax,8),%rdi
  40497f:	e8 9c eb ff ff       	callq  403520 <stringToFloat>
  404984:	0f 57 d2             	xorps  %xmm2,%xmm2
  404987:	f3 41 0f 11 84 24 b8 	movss  %xmm0,0xb8(%r12)
  40498e:	00 00 00 
  404991:	0f 2e c2             	ucomiss %xmm2,%xmm0
  404994:	72 11                	jb     4049a7 <processAtMLton+0x857>
  404996:	f3 0f 10 0d 36 57 01 	movss  0x15736(%rip),%xmm1        # 41a0d4 <_IO_stdin_used+0x1cb4>
  40499d:	00 
  40499e:	0f 2e c8             	ucomiss %xmm0,%xmm1
  4049a1:	0f 83 38 f8 ff ff    	jae    4041df <processAtMLton+0x8f>
  4049a7:	bf 08 8f 41 00       	mov    $0x418f08,%edi
  4049ac:	31 c0                	xor    %eax,%eax
  4049ae:	e8 6d f4 00 00       	callq  413e20 <die>
  4049b3:	bf d0 8e 41 00       	mov    $0x418ed0,%edi
  4049b8:	31 c0                	xor    %eax,%eax
  4049ba:	e8 61 f4 00 00       	callq  413e20 <die>
  4049bf:	bf 0b 9e 41 00       	mov    $0x419e0b,%edi
  4049c4:	b9 19 00 00 00       	mov    $0x19,%ecx
  4049c9:	48 89 c6             	mov    %rax,%rsi
  4049cc:	f3 a6                	repz cmpsb %es:(%rdi),%ds:(%rsi)
  4049ce:	75 3c                	jne    404a0c <processAtMLton+0x8bc>
  4049d0:	8d 43 01             	lea    0x1(%rbx),%eax
  4049d3:	39 e8                	cmp    %ebp,%eax
  4049d5:	0f 84 c5 00 00 00    	je     404aa0 <processAtMLton+0x950>
  4049db:	48 98                	cltq   
  4049dd:	83 c3 02             	add    $0x2,%ebx
  4049e0:	49 8b 3c c7          	mov    (%r15,%rax,8),%rdi
  4049e4:	e8 37 eb ff ff       	callq  403520 <stringToFloat>
  4049e9:	0f 2e 05 e4 56 01 00 	ucomiss 0x156e4(%rip),%xmm0        # 41a0d4 <_IO_stdin_used+0x1cb4>
  4049f0:	f3 41 0f 11 84 24 bc 	movss  %xmm0,0xbc(%r12)
  4049f7:	00 00 00 
  4049fa:	0f 87 df f7 ff ff    	ja     4041df <processAtMLton+0x8f>
  404a00:	bf 88 8f 41 00       	mov    $0x418f88,%edi
  404a05:	31 c0                	xor    %eax,%eax
  404a07:	e8 14 f4 00 00       	callq  413e20 <die>
  404a0c:	bf 24 9e 41 00       	mov    $0x419e24,%edi
  404a11:	b9 13 00 00 00       	mov    $0x13,%ecx
  404a16:	48 89 c6             	mov    %rax,%rsi
  404a19:	f3 a6                	repz cmpsb %es:(%rdi),%ds:(%rsi)
  404a1b:	75 50                	jne    404a6d <processAtMLton+0x91d>
  404a1d:	8d 43 01             	lea    0x1(%rbx),%eax
  404a20:	39 e8                	cmp    %ebp,%eax
  404a22:	74 3d                	je     404a61 <processAtMLton+0x911>
  404a24:	48 98                	cltq   
  404a26:	83 c3 02             	add    $0x2,%ebx
  404a29:	49 8b 3c c7          	mov    (%r15,%rax,8),%rdi
  404a2d:	e8 ee ea ff ff       	callq  403520 <stringToFloat>
  404a32:	0f 57 db             	xorps  %xmm3,%xmm3
  404a35:	f3 41 0f 11 84 24 c0 	movss  %xmm0,0xc0(%r12)
  404a3c:	00 00 00 
  404a3f:	0f 2e c3             	ucomiss %xmm3,%xmm0
  404a42:	72 11                	jb     404a55 <processAtMLton+0x905>
  404a44:	f3 0f 10 25 88 56 01 	movss  0x15688(%rip),%xmm4        # 41a0d4 <_IO_stdin_used+0x1cb4>
  404a4b:	00 
  404a4c:	0f 2e e0             	ucomiss %xmm0,%xmm4
  404a4f:	0f 83 8a f7 ff ff    	jae    4041df <processAtMLton+0x8f>
  404a55:	bf f8 8f 41 00       	mov    $0x418ff8,%edi
  404a5a:	31 c0                	xor    %eax,%eax
  404a5c:	e8 bf f3 00 00       	callq  413e20 <die>
  404a61:	bf c8 8f 41 00       	mov    $0x418fc8,%edi
  404a66:	31 c0                	xor    %eax,%eax
  404a68:	e8 b3 f3 00 00       	callq  413e20 <die>
  404a6d:	bf 37 9e 41 00       	mov    $0x419e37,%edi
  404a72:	b9 09 00 00 00       	mov    $0x9,%ecx
  404a77:	48 89 c6             	mov    %rax,%rsi
  404a7a:	f3 a6                	repz cmpsb %es:(%rdi),%ds:(%rsi)
  404a7c:	75 3a                	jne    404ab8 <processAtMLton+0x968>
  404a7e:	8d 43 01             	lea    0x1(%rbx),%eax
  404a81:	39 e8                	cmp    %ebp,%eax
  404a83:	74 27                	je     404aac <processAtMLton+0x95c>
  404a85:	48 98                	cltq   
  404a87:	83 c3 02             	add    $0x2,%ebx
  404a8a:	49 8b 3c c7          	mov    (%r15,%rax,8),%rdi
  404a8e:	e8 6d f6 ff ff       	callq  404100 <stringToBool>
  404a93:	0f b6 f8             	movzbl %al,%edi
  404a96:	e8 d5 e1 ff ff       	callq  402c70 <GC_setCygwinUseMmap>
  404a9b:	e9 3f f7 ff ff       	jmpq   4041df <processAtMLton+0x8f>
  404aa0:	bf 50 8f 41 00       	mov    $0x418f50,%edi
  404aa5:	31 c0                	xor    %eax,%eax
  404aa7:	e8 74 f3 00 00       	callq  413e20 <die>
  404aac:	bf 38 90 41 00       	mov    $0x419038,%edi
  404ab1:	31 c0                	xor    %eax,%eax
  404ab3:	e8 68 f3 00 00       	callq  413e20 <die>
  404ab8:	80 38 2d             	cmpb   $0x2d,(%rax)
  404abb:	75 14                	jne    404ad1 <processAtMLton+0x981>
  404abd:	80 78 01 2d          	cmpb   $0x2d,0x1(%rax)
  404ac1:	75 0e                	jne    404ad1 <processAtMLton+0x981>
  404ac3:	80 78 02 00          	cmpb   $0x0,0x2(%rax)
  404ac7:	75 08                	jne    404ad1 <processAtMLton+0x981>
  404ac9:	83 c3 01             	add    $0x1,%ebx
  404acc:	e9 9e f6 ff ff       	jmpq   40416f <processAtMLton+0x1f>
  404ad1:	83 fb 01             	cmp    $0x1,%ebx
  404ad4:	0f 8e 95 f6 ff ff    	jle    40416f <processAtMLton+0x1f>
  404ada:	48 89 c6             	mov    %rax,%rsi
  404add:	bf 40 9e 41 00       	mov    $0x419e40,%edi
  404ae2:	31 c0                	xor    %eax,%eax
  404ae4:	e8 37 f3 00 00       	callq  413e20 <die>
  404ae9:	0f 1f 80 00 00 00 00 	nopl   0x0(%rax)

0000000000404af0 <setCardMapAndCrossMap>:
  404af0:	53                   	push   %rbx
  404af1:	80 bf 70 04 00 00 00 	cmpb   $0x0,0x470(%rdi)
  404af8:	48 89 fb             	mov    %rdi,%rbx
  404afb:	0f 84 8f 00 00 00    	je     404b90 <setCardMapAndCrossMap+0xa0>
  404b01:	48 8b 8f 10 04 00 00 	mov    0x410(%rdi),%rcx
  404b08:	48 8b 87 68 06 00 00 	mov    0x668(%rdi),%rax
  404b0f:	48 89 ca             	mov    %rcx,%rdx
  404b12:	48 c1 ea 08          	shr    $0x8,%rdx
  404b16:	48 8d 54 10 ff       	lea    -0x1(%rax,%rdx,1),%rdx
  404b1b:	48 f7 d8             	neg    %rax
  404b1e:	48 21 c2             	and    %rax,%rdx
  404b21:	48 8b 87 18 04 00 00 	mov    0x418(%rdi),%rax
  404b28:	48 89 97 d0 03 00 00 	mov    %rdx,0x3d0(%rdi)
  404b2f:	48 89 97 e0 03 00 00 	mov    %rdx,0x3e0(%rdi)
  404b36:	48 8d 3c 08          	lea    (%rax,%rcx,1),%rdi
  404b3a:	48 01 d1             	add    %rdx,%rcx
  404b3d:	48 01 c1             	add    %rax,%rcx
  404b40:	48 c1 e8 08          	shr    $0x8,%rax
  404b44:	48 89 fe             	mov    %rdi,%rsi
  404b47:	48 89 bb c0 03 00 00 	mov    %rdi,0x3c0(%rbx)
  404b4e:	48 89 8b d8 03 00 00 	mov    %rcx,0x3d8(%rbx)
  404b55:	48 29 c6             	sub    %rax,%rsi
  404b58:	48 89 b3 c8 03 00 00 	mov    %rsi,0x3c8(%rbx)
  404b5f:	31 f6                	xor    %esi,%esi
  404b61:	e8 9a ca ff ff       	callq  401600 <memset@plt>
  404b66:	48 c7 83 e8 03 00 00 	movq   $0x0,0x3e8(%rbx)
  404b6d:	00 00 00 00 
  404b71:	48 8b 93 e0 03 00 00 	mov    0x3e0(%rbx),%rdx
  404b78:	be ff 00 00 00       	mov    $0xff,%esi
  404b7d:	48 8b bb d8 03 00 00 	mov    0x3d8(%rbx),%rdi
  404b84:	5b                   	pop    %rbx
  404b85:	e9 76 ca ff ff       	jmpq   401600 <memset@plt>
  404b8a:	66 0f 1f 44 00 00    	nopw   0x0(%rax,%rax,1)
  404b90:	48 c7 87 d0 03 00 00 	movq   $0x0,0x3d0(%rdi)
  404b97:	00 00 00 00 
  404b9b:	48 c7 87 c0 03 00 00 	movq   $0x0,0x3c0(%rdi)
  404ba2:	00 00 00 00 
  404ba6:	48 c7 87 c8 03 00 00 	movq   $0x0,0x3c8(%rdi)
  404bad:	00 00 00 00 
  404bb1:	48 c7 87 e0 03 00 00 	movq   $0x0,0x3e0(%rdi)
  404bb8:	00 00 00 00 
  404bbc:	48 c7 87 d8 03 00 00 	movq   $0x0,0x3d8(%rdi)
  404bc3:	00 00 00 00 
  404bc7:	5b                   	pop    %rbx
  404bc8:	c3                   	retq   
  404bc9:	0f 1f 80 00 00 00 00 	nopl   0x0(%rax)

0000000000404bd0 <hashConsPointer>:
  404bd0:	41 57                	push   %r15
  404bd2:	49 89 fb             	mov    %rdi,%r11
  404bd5:	41 89 d0             	mov    %edx,%r8d
  404bd8:	49 89 f7             	mov    %rsi,%r15
  404bdb:	41 56                	push   %r14
  404bdd:	41 55                	push   %r13
  404bdf:	41 54                	push   %r12
  404be1:	55                   	push   %rbp
  404be2:	53                   	push   %rbx
  404be3:	48 83 ec 38          	sub    $0x38,%rsp
  404be7:	4c 8b a7 78 04 00 00 	mov    0x478(%rdi),%r12
  404bee:	48 8b 7e f8          	mov    -0x8(%rsi),%rdi
  404bf2:	48 89 f8             	mov    %rdi,%rax
  404bf5:	25 fe ff 0f 00       	and    $0xffffe,%eax
  404bfa:	48 d1 e8             	shr    %rax
  404bfd:	48 8d 14 40          	lea    (%rax,%rax,2),%rdx
  404c01:	49 8b 83 80 04 00 00 	mov    0x480(%r11),%rax
  404c08:	48 8d 04 90          	lea    (%rax,%rdx,4),%rax
  404c0c:	80 78 04 00          	cmpb   $0x0,0x4(%rax)
  404c10:	8b 08                	mov    (%rax),%ecx
  404c12:	0f b7 50 06          	movzwl 0x6(%rax),%edx
  404c16:	89 ce                	mov    %ecx,%esi
  404c18:	89 4c 24 04          	mov    %ecx,0x4(%rsp)
  404c1c:	0f b7 48 08          	movzwl 0x8(%rax),%ecx
  404c20:	0f 85 87 01 00 00    	jne    404dad <hashConsPointer+0x1dd>
  404c26:	85 f6                	test   %esi,%esi
  404c28:	4c 8d 2c ca          	lea    (%rdx,%rcx,8),%r13
  404c2c:	0f 84 aa 01 00 00    	je     404ddc <hashConsPointer+0x20c>
  404c32:	4d 01 fd             	add    %r15,%r13
  404c35:	89 fe                	mov    %edi,%esi
  404c37:	4d 39 ef             	cmp    %r13,%r15
  404c3a:	73 19                	jae    404c55 <hashConsPointer+0x85>
  404c3c:	4c 89 f8             	mov    %r15,%rax
  404c3f:	90                   	nop
  404c40:	89 f2                	mov    %esi,%edx
  404c42:	48 83 c0 04          	add    $0x4,%rax
  404c46:	c1 e2 05             	shl    $0x5,%edx
  404c49:	29 f2                	sub    %esi,%edx
  404c4b:	8b 70 fc             	mov    -0x4(%rax),%esi
  404c4e:	01 d6                	add    %edx,%esi
  404c50:	49 39 c5             	cmp    %rax,%r13
  404c53:	77 eb                	ja     404c40 <hashConsPointer+0x70>
  404c55:	80 3d ac 96 21 00 00 	cmpb   $0x0,0x2196ac(%rip)        # 61e308 <init.12087>
  404c5c:	8b 15 9e 96 21 00    	mov    0x21969e(%rip),%edx        # 61e300 <mult.12088>
  404c62:	0f 84 57 01 00 00    	je     404dbf <hashConsPointer+0x1ef>
  404c68:	45 8b 4c 24 14       	mov    0x14(%r12),%r9d
  404c6d:	b9 20 00 00 00       	mov    $0x20,%ecx
  404c72:	4d 8b 34 24          	mov    (%r12),%r14
  404c76:	0f af d6             	imul   %esi,%edx
  404c79:	44 29 c9             	sub    %r9d,%ecx
  404c7c:	d3 ea                	shr    %cl,%edx
  404c7e:	b9 01 00 00 00       	mov    $0x1,%ecx
  404c83:	89 d0                	mov    %edx,%eax
  404c85:	41 89 d2             	mov    %edx,%r10d
  404c88:	83 e0 01             	and    $0x1,%eax
  404c8b:	83 f8 01             	cmp    $0x1,%eax
  404c8e:	89 d0                	mov    %edx,%eax
  404c90:	41 83 da 00          	sbb    $0x0,%r10d
  404c94:	48 c1 e0 04          	shl    $0x4,%rax
  404c98:	4c 01 f0             	add    %r14,%rax
  404c9b:	48 8b 68 08          	mov    0x8(%rax),%rbp
  404c9f:	48 89 c3             	mov    %rax,%rbx
  404ca2:	48 85 ed             	test   %rbp,%rbp
  404ca5:	75 29                	jne    404cd0 <hashConsPointer+0x100>
  404ca7:	e9 97 00 00 00       	jmpq   404d43 <hashConsPointer+0x173>
  404cac:	0f 1f 40 00          	nopl   0x0(%rax)
  404cb0:	42 8d 04 12          	lea    (%rdx,%r10,1),%eax
  404cb4:	31 d2                	xor    %edx,%edx
  404cb6:	83 c1 01             	add    $0x1,%ecx
  404cb9:	41 f7 74 24 10       	divl   0x10(%r12)
  404cbe:	89 d3                	mov    %edx,%ebx
  404cc0:	48 c1 e3 04          	shl    $0x4,%rbx
  404cc4:	4c 01 f3             	add    %r14,%rbx
  404cc7:	48 8b 6b 08          	mov    0x8(%rbx),%rbp
  404ccb:	48 85 ed             	test   %rbp,%rbp
  404cce:	74 70                	je     404d40 <hashConsPointer+0x170>
  404cd0:	3b 33                	cmp    (%rbx),%esi
  404cd2:	75 dc                	jne    404cb0 <hashConsPointer+0xe0>
  404cd4:	49 39 ef             	cmp    %rbp,%r15
  404cd7:	0f 84 a4 02 00 00    	je     404f81 <hashConsPointer+0x3b1>
  404cdd:	48 3b 7d f8          	cmp    -0x8(%rbp),%rdi
  404ce1:	75 cd                	jne    404cb0 <hashConsPointer+0xe0>
  404ce3:	4d 39 ef             	cmp    %r13,%r15
  404ce6:	73 30                	jae    404d18 <hashConsPointer+0x148>
  404ce8:	8b 45 00             	mov    0x0(%rbp),%eax
  404ceb:	41 39 07             	cmp    %eax,(%r15)
  404cee:	75 c0                	jne    404cb0 <hashConsPointer+0xe0>
  404cf0:	48 89 e8             	mov    %rbp,%rax
  404cf3:	4c 89 fb             	mov    %r15,%rbx
  404cf6:	48 89 6c 24 08       	mov    %rbp,0x8(%rsp)
  404cfb:	eb 09                	jmp    404d06 <hashConsPointer+0x136>
  404cfd:	0f 1f 00             	nopl   (%rax)
  404d00:	8b 28                	mov    (%rax),%ebp
  404d02:	39 2b                	cmp    %ebp,(%rbx)
  404d04:	75 aa                	jne    404cb0 <hashConsPointer+0xe0>
  404d06:	48 83 c3 04          	add    $0x4,%rbx
  404d0a:	48 83 c0 04          	add    $0x4,%rax
  404d0e:	49 39 dd             	cmp    %rbx,%r13
  404d11:	77 ed                	ja     404d00 <hashConsPointer+0x130>
  404d13:	48 8b 6c 24 08       	mov    0x8(%rsp),%rbp
  404d18:	8b 5c 24 04          	mov    0x4(%rsp),%ebx
  404d1c:	85 db                	test   %ebx,%ebx
  404d1e:	75 0a                	jne    404d2a <hashConsPointer+0x15a>
  404d20:	48 8b 45 f0          	mov    -0x10(%rbp),%rax
  404d24:	49 39 47 f0          	cmp    %rax,-0x10(%r15)
  404d28:	75 86                	jne    404cb0 <hashConsPointer+0xe0>
  404d2a:	41 0f b6 44 24 18    	movzbl 0x18(%r12),%eax
  404d30:	44 88 44 24 08       	mov    %r8b,0x8(%rsp)
  404d35:	e9 52 02 00 00       	jmpq   404f8c <hashConsPointer+0x3bc>
  404d3a:	66 0f 1f 44 00 00    	nopw   0x0(%rax,%rax,1)
  404d40:	48 89 d8             	mov    %rbx,%rax
  404d43:	41 80 7c 24 18 00    	cmpb   $0x0,0x18(%r12)
  404d49:	74 62                	je     404dad <hashConsPointer+0x1dd>
  404d4b:	89 30                	mov    %esi,(%rax)
  404d4d:	4c 89 78 08          	mov    %r15,0x8(%rax)
  404d51:	41 83 44 24 0c 01    	addl   $0x1,0xc(%r12)
  404d57:	39 0d 9f 95 21 00    	cmp    %ecx,0x21959f(%rip)        # 61e2fc <maxNumProbes.12089>
  404d5d:	73 06                	jae    404d65 <hashConsPointer+0x195>
  404d5f:	89 0d 97 95 21 00    	mov    %ecx,0x219597(%rip)        # 61e2fc <maxNumProbes.12089>
  404d65:	4c 89 fd             	mov    %r15,%rbp
  404d68:	c6 44 24 08 00       	movb   $0x0,0x8(%rsp)
  404d6d:	41 8b 44 24 0c       	mov    0xc(%r12),%eax
  404d72:	41 8b 54 24 10       	mov    0x10(%r12),%edx
  404d77:	01 c0                	add    %eax,%eax
  404d79:	39 d0                	cmp    %edx,%eax
  404d7b:	0f 87 89 00 00 00    	ja     404e0a <hashConsPointer+0x23a>
  404d81:	80 7c 24 08 00       	cmpb   $0x0,0x8(%rsp)
  404d86:	0f 84 0d 02 00 00    	je     404f99 <hashConsPointer+0x3c9>
  404d8c:	44 8b 4c 24 04       	mov    0x4(%rsp),%r9d
  404d91:	4d 29 fd             	sub    %r15,%r13
  404d94:	49 89 ef             	mov    %rbp,%r15
  404d97:	49 8d 45 18          	lea    0x18(%r13),%rax
  404d9b:	49 83 c5 08          	add    $0x8,%r13
  404d9f:	45 85 c9             	test   %r9d,%r9d
  404da2:	49 0f 45 c5          	cmovne %r13,%rax
  404da6:	49 01 83 38 04 00 00 	add    %rax,0x438(%r11)
  404dad:	48 83 c4 38          	add    $0x38,%rsp
  404db1:	4c 89 f8             	mov    %r15,%rax
  404db4:	5b                   	pop    %rbx
  404db5:	5d                   	pop    %rbp
  404db6:	41 5c                	pop    %r12
  404db8:	41 5d                	pop    %r13
  404dba:	41 5e                	pop    %r14
  404dbc:	41 5f                	pop    %r15
  404dbe:	c3                   	retq   
  404dbf:	b8 b9 79 37 9e       	mov    $0x9e3779b9,%eax
  404dc4:	c6 05 3d 95 21 00 01 	movb   $0x1,0x21953d(%rip)        # 61e308 <init.12087>
  404dcb:	ba b9 79 37 9e       	mov    $0x9e3779b9,%edx
  404dd0:	48 89 05 29 95 21 00 	mov    %rax,0x219529(%rip)        # 61e300 <mult.12088>
  404dd7:	e9 8c fe ff ff       	jmpq   404c68 <hashConsPointer+0x98>
  404ddc:	48 8d 04 ca          	lea    (%rdx,%rcx,8),%rax
  404de0:	ba 08 00 00 00       	mov    $0x8,%edx
  404de5:	49 0f af 47 f0       	imul   -0x10(%r15),%rax
  404dea:	48 83 f8 07          	cmp    $0x7,%rax
  404dee:	48 0f 46 c2          	cmovbe %rdx,%rax
  404df2:	49 8b 53 28          	mov    0x28(%r11),%rdx
  404df6:	4c 8d 6c 10 17       	lea    0x17(%rax,%rdx,1),%r13
  404dfb:	48 f7 da             	neg    %rdx
  404dfe:	49 21 d5             	and    %rdx,%r13
  404e01:	49 83 ed 18          	sub    $0x18,%r13
  404e05:	e9 28 fe ff ff       	jmpq   404c32 <hashConsPointer+0x62>
  404e0a:	8d 1c 12             	lea    (%rdx,%rdx,1),%ebx
  404e0d:	be 10 00 00 00       	mov    $0x10,%esi
  404e12:	4c 89 5c 24 20       	mov    %r11,0x20(%rsp)
  404e17:	44 89 4c 24 18       	mov    %r9d,0x18(%rsp)
  404e1c:	89 54 24 10          	mov    %edx,0x10(%rsp)
  404e20:	89 df                	mov    %ebx,%edi
  404e22:	e8 39 c8 ff ff       	callq  401660 <calloc@plt>
  404e27:	48 85 c0             	test   %rax,%rax
  404e2a:	49 89 c0             	mov    %rax,%r8
  404e2d:	49 89 04 24          	mov    %rax,(%r12)
  404e31:	8b 54 24 10          	mov    0x10(%rsp),%edx
  404e35:	44 8b 4c 24 18       	mov    0x18(%rsp),%r9d
  404e3a:	4c 8b 5c 24 20       	mov    0x20(%rsp),%r11
  404e3f:	0f 84 73 01 00 00    	je     404fb8 <hashConsPointer+0x3e8>
  404e45:	41 8d 41 01          	lea    0x1(%r9),%eax
  404e49:	85 d2                	test   %edx,%edx
  404e4b:	41 89 5c 24 10       	mov    %ebx,0x10(%r12)
  404e50:	41 89 44 24 14       	mov    %eax,0x14(%r12)
  404e55:	0f 84 13 01 00 00    	je     404f6e <hashConsPointer+0x39e>
  404e5b:	83 ea 01             	sub    $0x1,%edx
  404e5e:	48 8b 0d 9b 94 21 00 	mov    0x21949b(%rip),%rcx        # 61e300 <mult.12088>
  404e65:	8b 3d 91 94 21 00    	mov    0x219491(%rip),%edi        # 61e2fc <maxNumProbes.12089>
  404e6b:	48 c1 e2 04          	shl    $0x4,%rdx
  404e6f:	0f b6 05 92 94 21 00 	movzbl 0x219492(%rip),%eax        # 61e308 <init.12087>
  404e76:	41 ba 1f 00 00 00    	mov    $0x1f,%r10d
  404e7c:	49 8d 54 16 10       	lea    0x10(%r14,%rdx,1),%rdx
  404e81:	45 29 ca             	sub    %r9d,%r10d
  404e84:	4c 89 f6             	mov    %r14,%rsi
  404e87:	4c 89 6c 24 10       	mov    %r13,0x10(%rsp)
  404e8c:	4c 89 74 24 20       	mov    %r14,0x20(%rsp)
  404e91:	41 89 fd             	mov    %edi,%r13d
  404e94:	4c 89 5c 24 28       	mov    %r11,0x28(%rsp)
  404e99:	48 89 6c 24 18       	mov    %rbp,0x18(%rsp)
  404e9e:	49 89 cb             	mov    %rcx,%r11
  404ea1:	49 89 d6             	mov    %rdx,%r14
  404ea4:	44 89 d1             	mov    %r10d,%ecx
  404ea7:	66 0f 1f 84 00 00 00 	nopw   0x0(%rax,%rax,1)
  404eae:	00 00 
  404eb0:	4c 8b 56 08          	mov    0x8(%rsi),%r10
  404eb4:	4d 85 d2             	test   %r10,%r10
  404eb7:	74 7b                	je     404f34 <hashConsPointer+0x364>
  404eb9:	8b 2e                	mov    (%rsi),%ebp
  404ebb:	84 c0                	test   %al,%al
  404ebd:	ba b9 79 37 9e       	mov    $0x9e3779b9,%edx
  404ec2:	41 0f 45 d3          	cmovne %r11d,%edx
  404ec6:	b8 b9 79 37 9e       	mov    $0x9e3779b9,%eax
  404ecb:	bf 01 00 00 00       	mov    $0x1,%edi
  404ed0:	4c 0f 44 d8          	cmove  %rax,%r11
  404ed4:	0f af d5             	imul   %ebp,%edx
  404ed7:	d3 ea                	shr    %cl,%edx
  404ed9:	89 d0                	mov    %edx,%eax
  404edb:	41 89 d1             	mov    %edx,%r9d
  404ede:	83 e0 01             	and    $0x1,%eax
  404ee1:	83 f8 01             	cmp    $0x1,%eax
  404ee4:	89 d0                	mov    %edx,%eax
  404ee6:	41 83 d9 00          	sbb    $0x0,%r9d
  404eea:	48 c1 e0 04          	shl    $0x4,%rax
  404eee:	4c 01 c0             	add    %r8,%rax
  404ef1:	48 83 78 08 00       	cmpq   $0x0,0x8(%rax)
  404ef6:	74 23                	je     404f1b <hashConsPointer+0x34b>
  404ef8:	0f 1f 84 00 00 00 00 	nopl   0x0(%rax,%rax,1)
  404eff:	00 
  404f00:	42 8d 04 0a          	lea    (%rdx,%r9,1),%eax
  404f04:	31 d2                	xor    %edx,%edx
  404f06:	83 c7 01             	add    $0x1,%edi
  404f09:	f7 f3                	div    %ebx
  404f0b:	89 d0                	mov    %edx,%eax
  404f0d:	48 c1 e0 04          	shl    $0x4,%rax
  404f11:	4c 01 c0             	add    %r8,%rax
  404f14:	48 83 78 08 00       	cmpq   $0x0,0x8(%rax)
  404f19:	75 e5                	jne    404f00 <hashConsPointer+0x330>
  404f1b:	89 28                	mov    %ebp,(%rax)
  404f1d:	4c 89 50 08          	mov    %r10,0x8(%rax)
  404f21:	41 83 44 24 0c 01    	addl   $0x1,0xc(%r12)
  404f27:	44 39 ef             	cmp    %r13d,%edi
  404f2a:	76 03                	jbe    404f2f <hashConsPointer+0x35f>
  404f2c:	41 89 fd             	mov    %edi,%r13d
  404f2f:	b8 01 00 00 00       	mov    $0x1,%eax
  404f34:	48 83 c6 10          	add    $0x10,%rsi
  404f38:	4c 39 f6             	cmp    %r14,%rsi
  404f3b:	0f 85 6f ff ff ff    	jne    404eb0 <hashConsPointer+0x2e0>
  404f41:	44 89 ef             	mov    %r13d,%edi
  404f44:	4c 89 d9             	mov    %r11,%rcx
  404f47:	48 8b 6c 24 18       	mov    0x18(%rsp),%rbp
  404f4c:	4c 8b 6c 24 10       	mov    0x10(%rsp),%r13
  404f51:	4c 8b 74 24 20       	mov    0x20(%rsp),%r14
  404f56:	4c 8b 5c 24 28       	mov    0x28(%rsp),%r11
  404f5b:	88 05 a7 93 21 00    	mov    %al,0x2193a7(%rip)        # 61e308 <init.12087>
  404f61:	48 89 0d 98 93 21 00 	mov    %rcx,0x219398(%rip)        # 61e300 <mult.12088>
  404f68:	89 3d 8e 93 21 00    	mov    %edi,0x21938e(%rip)        # 61e2fc <maxNumProbes.12089>
  404f6e:	41 80 7c 24 08 00    	cmpb   $0x0,0x8(%r12)
  404f74:	74 2b                	je     404fa1 <hashConsPointer+0x3d1>
  404f76:	41 c6 44 24 08 00    	movb   $0x0,0x8(%r12)
  404f7c:	e9 00 fe ff ff       	jmpq   404d81 <hashConsPointer+0x1b1>
  404f81:	41 0f b6 44 24 18    	movzbl 0x18(%r12),%eax
  404f87:	c6 44 24 08 00       	movb   $0x0,0x8(%rsp)
  404f8c:	84 c0                	test   %al,%al
  404f8e:	0f 85 d9 fd ff ff    	jne    404d6d <hashConsPointer+0x19d>
  404f94:	e9 e8 fd ff ff       	jmpq   404d81 <hashConsPointer+0x1b1>
  404f99:	49 89 ef             	mov    %rbp,%r15
  404f9c:	e9 0c fe ff ff       	jmpq   404dad <hashConsPointer+0x1dd>
  404fa1:	4c 89 f7             	mov    %r14,%rdi
  404fa4:	4c 89 5c 24 10       	mov    %r11,0x10(%rsp)
  404fa9:	e8 02 c5 ff ff       	callq  4014b0 <free@plt>
  404fae:	4c 8b 5c 24 10       	mov    0x10(%rsp),%r11
  404fb3:	e9 c9 fd ff ff       	jmpq   404d81 <hashConsPointer+0x1b1>
  404fb8:	41 c6 44 24 18 00    	movb   $0x0,0x18(%r12)
  404fbe:	4d 89 34 24          	mov    %r14,(%r12)
  404fc2:	e9 ba fd ff ff       	jmpq   404d81 <hashConsPointer+0x1b1>
  404fc7:	66 0f 1f 84 00 00 00 	nopw   0x0(%rax,%rax,1)
  404fce:	00 00 

0000000000404fd0 <shareObjptr>:
  404fd0:	55                   	push   %rbp
  404fd1:	31 d2                	xor    %edx,%edx
  404fd3:	48 89 fd             	mov    %rdi,%rbp
  404fd6:	53                   	push   %rbx
  404fd7:	48 89 f3             	mov    %rsi,%rbx
  404fda:	48 83 ec 08          	sub    $0x8,%rsp
  404fde:	48 8b 36             	mov    (%rsi),%rsi
  404fe1:	e8 ea fb ff ff       	callq  404bd0 <hashConsPointer>
  404fe6:	80 bd 70 04 00 00 00 	cmpb   $0x0,0x470(%rbp)
  404fed:	48 89 03             	mov    %rax,(%rbx)
  404ff0:	74 2e                	je     405020 <shareObjptr+0x50>
  404ff2:	f6 c3 03             	test   $0x3,%bl
  404ff5:	74 39                	je     405030 <shareObjptr+0x60>
  404ff7:	a8 03                	test   $0x3,%al
  404ff9:	75 15                	jne    405010 <shareObjptr+0x40>
  404ffb:	48 3b 85 00 04 00 00 	cmp    0x400(%rbp),%rax
  405002:	72 1c                	jb     405020 <shareObjptr+0x50>
  405004:	48 3b 45 00          	cmp    0x0(%rbp),%rax
  405008:	73 16                	jae    405020 <shareObjptr+0x50>
  40500a:	66 0f 1f 44 00 00    	nopw   0x0(%rax,%rax,1)
  405010:	48 8b 85 c8 03 00 00 	mov    0x3c8(%rbp),%rax
  405017:	48 c1 eb 08          	shr    $0x8,%rbx
  40501b:	c6 04 18 01          	movb   $0x1,(%rax,%rbx,1)
  40501f:	90                   	nop
  405020:	48 83 c4 08          	add    $0x8,%rsp
  405024:	5b                   	pop    %rbx
  405025:	5d                   	pop    %rbp
  405026:	c3                   	retq   
  405027:	66 0f 1f 84 00 00 00 	nopw   0x0(%rax,%rax,1)
  40502e:	00 00 
  405030:	48 8b 95 18 04 00 00 	mov    0x418(%rbp),%rdx
  405037:	48 39 d3             	cmp    %rdx,%rbx
  40503a:	72 e4                	jb     405020 <shareObjptr+0x50>
  40503c:	48 03 95 08 04 00 00 	add    0x408(%rbp),%rdx
  405043:	48 39 d3             	cmp    %rdx,%rbx
  405046:	72 af                	jb     404ff7 <shareObjptr+0x27>
  405048:	eb d6                	jmp    405020 <shareObjptr+0x50>
  40504a:	66 0f 1f 44 00 00    	nopw   0x0(%rax,%rax,1)

0000000000405050 <translateHeap>:
  405050:	41 57                	push   %r15
  405052:	41 56                	push   %r14
  405054:	41 55                	push   %r13
  405056:	41 54                	push   %r12
  405058:	49 89 f4             	mov    %rsi,%r12
  40505b:	55                   	push   %rbp
  40505c:	53                   	push   %rbx
  40505d:	48 89 d3             	mov    %rdx,%rbx
  405060:	48 83 ec 08          	sub    $0x8,%rsp
  405064:	48 39 d6             	cmp    %rdx,%rsi
  405067:	0f 84 0e 02 00 00    	je     40527b <translateHeap+0x22b>
  40506d:	80 7f 7b 00          	cmpb   $0x0,0x7b(%rdi)
  405071:	49 89 fd             	mov    %rdi,%r13
  405074:	48 89 cd             	mov    %rcx,%rbp
  405077:	74 24                	je     40509d <translateHeap+0x4d>
  405079:	48 89 cf             	mov    %rcx,%rdi
  40507c:	e8 9f f0 00 00       	callq  414120 <uintmaxToCommaString>
  405081:	48 8b 3d 68 86 21 00 	mov    0x218668(%rip),%rdi        # 61d6f0 <stderr@@GLIBC_2.2.5>
  405088:	48 89 c2             	mov    %rax,%rdx
  40508b:	4d 89 e0             	mov    %r12,%r8
  40508e:	48 89 d9             	mov    %rbx,%rcx
  405091:	be 60 90 41 00       	mov    $0x419060,%esi
  405096:	31 c0                	xor    %eax,%eax
  405098:	e8 d3 c5 ff ff       	callq  401670 <fprintf@plt>
  40509d:	41 8b 8d f8 03 00 00 	mov    0x3f8(%r13),%ecx
  4050a4:	4d 89 a5 78 06 00 00 	mov    %r12,0x678(%r13)
  4050ab:	49 89 9d 80 06 00 00 	mov    %rbx,0x680(%r13)
  4050b2:	85 c9                	test   %ecx,%ecx
  4050b4:	74 3d                	je     4050f3 <translateHeap+0xa3>
  4050b6:	49 8b 95 f0 03 00 00 	mov    0x3f0(%r13),%rdx
  4050bd:	83 e9 01             	sub    $0x1,%ecx
  4050c0:	48 8d 42 08          	lea    0x8(%rdx),%rax
  4050c4:	4c 8d 04 c8          	lea    (%rax,%rcx,8),%r8
  4050c8:	eb 0c                	jmp    4050d6 <translateHeap+0x86>
  4050ca:	4c 39 c0             	cmp    %r8,%rax
  4050cd:	48 89 c2             	mov    %rax,%rdx
  4050d0:	74 21                	je     4050f3 <translateHeap+0xa3>
  4050d2:	48 83 c0 08          	add    $0x8,%rax
  4050d6:	48 8b 32             	mov    (%rdx),%rsi
  4050d9:	40 f6 c6 03          	test   $0x3,%sil
  4050dd:	75 eb                	jne    4050ca <translateHeap+0x7a>
  4050df:	4c 29 e6             	sub    %r12,%rsi
  4050e2:	48 89 f1             	mov    %rsi,%rcx
  4050e5:	48 01 d9             	add    %rbx,%rcx
  4050e8:	4c 39 c0             	cmp    %r8,%rax
  4050eb:	48 89 0a             	mov    %rcx,(%rdx)
  4050ee:	48 89 c2             	mov    %rax,%rdx
  4050f1:	75 df                	jne    4050d2 <translateHeap+0x82>
  4050f3:	49 8b 45 48          	mov    0x48(%r13),%rax
  4050f7:	a8 03                	test   $0x3,%al
  4050f9:	75 0a                	jne    405105 <translateHeap+0xb5>
  4050fb:	4c 29 e0             	sub    %r12,%rax
  4050fe:	48 01 d8             	add    %rbx,%rax
  405101:	49 89 45 48          	mov    %rax,0x48(%r13)
  405105:	49 8b 85 88 03 00 00 	mov    0x388(%r13),%rax
  40510c:	a8 03                	test   $0x3,%al
  40510e:	75 0d                	jne    40511d <translateHeap+0xcd>
  405110:	4c 29 e0             	sub    %r12,%rax
  405113:	48 01 d8             	add    %rbx,%rax
  405116:	49 89 85 88 03 00 00 	mov    %rax,0x388(%r13)
  40511d:	49 8b 85 b0 04 00 00 	mov    0x4b0(%r13),%rax
  405124:	a8 03                	test   $0x3,%al
  405126:	75 0d                	jne    405135 <translateHeap+0xe5>
  405128:	4c 29 e0             	sub    %r12,%rax
  40512b:	48 01 d8             	add    %rbx,%rax
  40512e:	49 89 85 b0 04 00 00 	mov    %rax,0x4b0(%r13)
  405135:	49 8b 85 f0 04 00 00 	mov    0x4f0(%r13),%rax
  40513c:	a8 03                	test   $0x3,%al
  40513e:	75 0d                	jne    40514d <translateHeap+0xfd>
  405140:	4c 29 e0             	sub    %r12,%rax
  405143:	48 01 d8             	add    %rbx,%rax
  405146:	49 89 85 f0 04 00 00 	mov    %rax,0x4f0(%r13)
  40514d:	49 8b 45 28          	mov    0x28(%r13),%rax
  405151:	48 01 dd             	add    %rbx,%rbp
  405154:	48 8d 4c 03 07       	lea    0x7(%rbx,%rax,1),%rcx
  405159:	48 f7 d8             	neg    %rax
  40515c:	48 21 c1             	and    %rax,%rcx
  40515f:	48 83 e9 08          	sub    $0x8,%rcx
  405163:	48 39 cd             	cmp    %rcx,%rbp
  405166:	0f 86 0f 01 00 00    	jbe    40527b <translateHeap+0x22b>
  40516c:	41 bc 07 00 00 00    	mov    $0x7,%r12d
  405172:	66 0f 1f 44 00 00    	nopw   0x0(%rax,%rax,1)
  405178:	48 8b 01             	mov    (%rcx),%rax
  40517b:	4c 8d 79 08          	lea    0x8(%rcx),%r15
  40517f:	48 85 c0             	test   %rax,%rax
  405182:	75 08                	jne    40518c <translateHeap+0x13c>
  405184:	48 8b 41 10          	mov    0x10(%rcx),%rax
  405188:	4c 8d 79 18          	lea    0x18(%rcx),%r15
  40518c:	25 fe ff 0f 00       	and    $0xffffe,%eax
  405191:	48 d1 e8             	shr    %rax
  405194:	48 8d 14 40          	lea    (%rax,%rax,2),%rdx
  405198:	49 8b 85 80 04 00 00 	mov    0x480(%r13),%rax
  40519f:	48 8d 04 90          	lea    (%rax,%rdx,4),%rax
  4051a3:	8b 10                	mov    (%rax),%edx
  4051a5:	0f b7 48 06          	movzwl 0x6(%rax),%ecx
  4051a9:	0f b7 40 08          	movzwl 0x8(%rax),%eax
  4051ad:	83 fa 01             	cmp    $0x1,%edx
  4051b0:	0f 84 d4 00 00 00    	je     40528a <translateHeap+0x23a>
  4051b6:	83 fa 03             	cmp    $0x3,%edx
  4051b9:	0f 84 a2 01 00 00    	je     405361 <translateHeap+0x311>
  4051bf:	85 d2                	test   %edx,%edx
  4051c1:	0f 85 19 01 00 00    	jne    4052e0 <translateHeap+0x290>
  4051c7:	44 0f b7 c8          	movzwl %ax,%r9d
  4051cb:	44 0f b7 c1          	movzwl %cx,%r8d
  4051cf:	49 c1 e1 03          	shl    $0x3,%r9
  4051d3:	4b 8d 34 01          	lea    (%r9,%r8,1),%rsi
  4051d7:	49 0f af 77 f0       	imul   -0x10(%r15),%rsi
  4051dc:	48 83 fe 07          	cmp    $0x7,%rsi
  4051e0:	0f 86 a9 01 00 00    	jbe    40538f <translateHeap+0x33f>
  4051e6:	66 85 c0             	test   %ax,%ax
  4051e9:	74 73                	je     40525e <translateHeap+0x20e>
  4051eb:	66 85 c9             	test   %cx,%cx
  4051ee:	49 8d 3c 37          	lea    (%r15,%rsi,1),%rdi
  4051f2:	0f 84 a1 01 00 00    	je     405399 <translateHeap+0x349>
  4051f8:	49 39 ff             	cmp    %rdi,%r15
  4051fb:	73 5e                	jae    40525b <translateHeap+0x20b>
  4051fd:	0f 1f 00             	nopl   (%rax)
  405200:	4d 01 c7             	add    %r8,%r15
  405203:	4b 8d 0c 0f          	lea    (%r15,%r9,1),%rcx
  405207:	49 39 cf             	cmp    %rcx,%r15
  40520a:	73 4a                	jae    405256 <translateHeap+0x206>
  40520c:	4c 89 f8             	mov    %r15,%rax
  40520f:	eb 10                	jmp    405221 <translateHeap+0x1d1>
  405211:	0f 1f 80 00 00 00 00 	nopl   0x0(%rax)
  405218:	48 83 c0 08          	add    $0x8,%rax
  40521c:	48 39 c1             	cmp    %rax,%rcx
  40521f:	76 23                	jbe    405244 <translateHeap+0x1f4>
  405221:	48 8b 10             	mov    (%rax),%rdx
  405224:	f6 c2 03             	test   $0x3,%dl
  405227:	75 ef                	jne    405218 <translateHeap+0x1c8>
  405229:	49 2b 95 78 06 00 00 	sub    0x678(%r13),%rdx
  405230:	48 83 c0 08          	add    $0x8,%rax
  405234:	49 03 95 80 06 00 00 	add    0x680(%r13),%rdx
  40523b:	48 89 50 f8          	mov    %rdx,-0x8(%rax)
  40523f:	48 39 c1             	cmp    %rax,%rcx
  405242:	77 dd                	ja     405221 <translateHeap+0x1d1>
  405244:	4c 89 f8             	mov    %r15,%rax
  405247:	48 f7 d0             	not    %rax
  40524a:	48 01 c8             	add    %rcx,%rax
  40524d:	48 c1 e8 03          	shr    $0x3,%rax
  405251:	4d 8d 7c c7 08       	lea    0x8(%r15,%rax,8),%r15
  405256:	4c 39 ff             	cmp    %r15,%rdi
  405259:	77 a5                	ja     405200 <translateHeap+0x1b0>
  40525b:	49 29 f7             	sub    %rsi,%r15
  40525e:	49 8b 55 28          	mov    0x28(%r13),%rdx
  405262:	48 8d 44 16 17       	lea    0x17(%rsi,%rdx,1),%rax
  405267:	48 f7 da             	neg    %rdx
  40526a:	48 21 d0             	and    %rdx,%rax
  40526d:	49 8d 4c 07 e8       	lea    -0x18(%r15,%rax,1),%rcx
  405272:	48 39 cd             	cmp    %rcx,%rbp
  405275:	0f 87 fd fe ff ff    	ja     405178 <translateHeap+0x128>
  40527b:	48 83 c4 08          	add    $0x8,%rsp
  40527f:	5b                   	pop    %rbx
  405280:	5d                   	pop    %rbp
  405281:	41 5c                	pop    %r12
  405283:	41 5d                	pop    %r13
  405285:	41 5e                	pop    %r14
  405287:	41 5f                	pop    %r15
  405289:	c3                   	retq   
  40528a:	4c 01 f9             	add    %r15,%rcx
  40528d:	48 8d 34 c1          	lea    (%rcx,%rax,8),%rsi
  405291:	48 39 f1             	cmp    %rsi,%rcx
  405294:	73 dc                	jae    405272 <translateHeap+0x222>
  405296:	48 89 c8             	mov    %rcx,%rax
  405299:	eb 0e                	jmp    4052a9 <translateHeap+0x259>
  40529b:	0f 1f 44 00 00       	nopl   0x0(%rax,%rax,1)
  4052a0:	48 83 c0 08          	add    $0x8,%rax
  4052a4:	48 39 c6             	cmp    %rax,%rsi
  4052a7:	76 23                	jbe    4052cc <translateHeap+0x27c>
  4052a9:	48 8b 10             	mov    (%rax),%rdx
  4052ac:	f6 c2 03             	test   $0x3,%dl
  4052af:	75 ef                	jne    4052a0 <translateHeap+0x250>
  4052b1:	49 2b 95 78 06 00 00 	sub    0x678(%r13),%rdx
  4052b8:	48 83 c0 08          	add    $0x8,%rax
  4052bc:	49 03 95 80 06 00 00 	add    0x680(%r13),%rdx
  4052c3:	48 89 50 f8          	mov    %rdx,-0x8(%rax)
  4052c7:	48 39 c6             	cmp    %rax,%rsi
  4052ca:	77 dd                	ja     4052a9 <translateHeap+0x259>
  4052cc:	48 89 c8             	mov    %rcx,%rax
  4052cf:	48 f7 d0             	not    %rax
  4052d2:	48 01 f0             	add    %rsi,%rax
  4052d5:	48 c1 e8 03          	shr    $0x3,%rax
  4052d9:	48 8d 4c c1 08       	lea    0x8(%rcx,%rax,8),%rcx
  4052de:	eb 92                	jmp    405272 <translateHeap+0x222>
  4052e0:	49 8d 5f 20          	lea    0x20(%r15),%rbx
  4052e4:	49 89 de             	mov    %rbx,%r14
  4052e7:	4d 03 77 18          	add    0x18(%r15),%r14
  4052eb:	0f 1f 44 00 00       	nopl   0x0(%rax,%rax,1)
  4052f0:	4c 39 f3             	cmp    %r14,%rbx
  4052f3:	73 5e                	jae    405353 <translateHeap+0x303>
  4052f5:	49 8b 7e f8          	mov    -0x8(%r14),%rdi
  4052f9:	41 ff 95 a8 04 00 00 	callq  *0x4a8(%r13)
  405300:	89 c0                	mov    %eax,%eax
  405302:	48 8d 14 40          	lea    (%rax,%rax,2),%rdx
  405306:	49 8b 85 b0 03 00 00 	mov    0x3b0(%r13),%rax
  40530d:	48 8d 04 d0          	lea    (%rax,%rdx,8),%rax
  405311:	48 8b 78 08          	mov    0x8(%rax),%rdi
  405315:	0f b7 40 10          	movzwl 0x10(%rax),%eax
  405319:	0f b7 37             	movzwl (%rdi),%esi
  40531c:	49 29 c6             	sub    %rax,%r14
  40531f:	31 c0                	xor    %eax,%eax
  405321:	0f 1f 80 00 00 00 00 	nopl   0x0(%rax)
  405328:	39 f0                	cmp    %esi,%eax
  40532a:	73 c4                	jae    4052f0 <translateHeap+0x2a0>
  40532c:	83 c0 01             	add    $0x1,%eax
  40532f:	89 c2                	mov    %eax,%edx
  405331:	0f b7 14 57          	movzwl (%rdi,%rdx,2),%edx
  405335:	4c 01 f2             	add    %r14,%rdx
  405338:	48 8b 0a             	mov    (%rdx),%rcx
  40533b:	f6 c1 03             	test   $0x3,%cl
  40533e:	75 e8                	jne    405328 <translateHeap+0x2d8>
  405340:	49 2b 8d 78 06 00 00 	sub    0x678(%r13),%rcx
  405347:	49 03 8d 80 06 00 00 	add    0x680(%r13),%rcx
  40534e:	48 89 0a             	mov    %rcx,(%rdx)
  405351:	eb d5                	jmp    405328 <translateHeap+0x2d8>
  405353:	49 8b 47 10          	mov    0x10(%r15),%rax
  405357:	49 8d 4c 07 20       	lea    0x20(%r15,%rax,1),%rcx
  40535c:	e9 11 ff ff ff       	jmpq   405272 <translateHeap+0x222>
  405361:	4c 01 f9             	add    %r15,%rcx
  405364:	66 83 f8 01          	cmp    $0x1,%ax
  405368:	0f 85 04 ff ff ff    	jne    405272 <translateHeap+0x222>
  40536e:	48 8b 01             	mov    (%rcx),%rax
  405371:	a8 03                	test   $0x3,%al
  405373:	75 11                	jne    405386 <translateHeap+0x336>
  405375:	49 2b 85 78 06 00 00 	sub    0x678(%r13),%rax
  40537c:	49 03 85 80 06 00 00 	add    0x680(%r13),%rax
  405383:	48 89 01             	mov    %rax,(%rcx)
  405386:	48 83 c1 08          	add    $0x8,%rcx
  40538a:	e9 e3 fe ff ff       	jmpq   405272 <translateHeap+0x222>
  40538f:	be 08 00 00 00       	mov    $0x8,%esi
  405394:	e9 c5 fe ff ff       	jmpq   40525e <translateHeap+0x20e>
  405399:	49 39 ff             	cmp    %rdi,%r15
  40539c:	0f 83 b9 fe ff ff    	jae    40525b <translateHeap+0x20b>
  4053a2:	4c 89 f8             	mov    %r15,%rax
  4053a5:	eb 12                	jmp    4053b9 <translateHeap+0x369>
  4053a7:	66 0f 1f 84 00 00 00 	nopw   0x0(%rax,%rax,1)
  4053ae:	00 00 
  4053b0:	48 83 c0 08          	add    $0x8,%rax
  4053b4:	48 39 c7             	cmp    %rax,%rdi
  4053b7:	76 23                	jbe    4053dc <translateHeap+0x38c>
  4053b9:	48 8b 10             	mov    (%rax),%rdx
  4053bc:	f6 c2 03             	test   $0x3,%dl
  4053bf:	75 ef                	jne    4053b0 <translateHeap+0x360>
  4053c1:	49 2b 95 78 06 00 00 	sub    0x678(%r13),%rdx
  4053c8:	48 83 c0 08          	add    $0x8,%rax
  4053cc:	49 03 95 80 06 00 00 	add    0x680(%r13),%rdx
  4053d3:	48 89 50 f8          	mov    %rdx,-0x8(%rax)
  4053d7:	48 39 c7             	cmp    %rax,%rdi
  4053da:	77 dd                	ja     4053b9 <translateHeap+0x369>
  4053dc:	4c 29 ff             	sub    %r15,%rdi
  4053df:	4a 8d 44 27 f8       	lea    -0x8(%rdi,%r12,1),%rax
  4053e4:	48 c1 e8 03          	shr    $0x3,%rax
  4053e8:	4d 8d 7c c7 08       	lea    0x8(%r15,%rax,8),%r15
  4053ed:	e9 69 fe ff ff       	jmpq   40525b <translateHeap+0x20b>
  4053f2:	66 66 66 66 66 2e 0f 	data32 data32 data32 data32 nopw %cs:0x0(%rax,%rax,1)
  4053f9:	1f 84 00 00 00 00 00 

0000000000405400 <writeProfileCount.isra.27>:
  405400:	41 56                	push   %r14
  405402:	49 89 ce             	mov    %rcx,%r14
  405405:	31 c0                	xor    %eax,%eax
  405407:	41 55                	push   %r13
  405409:	49 89 fd             	mov    %rdi,%r13
  40540c:	bf 60 e2 61 00       	mov    $0x61e260,%edi
  405411:	41 54                	push   %r12
  405413:	45 89 c4             	mov    %r8d,%r12d
  405416:	55                   	push   %rbp
  405417:	48 89 f5             	mov    %rsi,%rbp
  40541a:	be 40 00 00 00       	mov    $0x40,%esi
  40541f:	53                   	push   %rbx
  405420:	4a 8b 0c e2          	mov    (%rdx,%r12,8),%rcx
  405424:	bb 60 e2 61 00       	mov    $0x61e260,%ebx
  405429:	ba 57 9e 41 00       	mov    $0x419e57,%edx
  40542e:	e8 9d c1 ff ff       	callq  4015d0 <snprintf@plt>
  405433:	8b 13                	mov    (%rbx),%edx
  405435:	48 83 c3 04          	add    $0x4,%rbx
  405439:	8d 82 ff fe fe fe    	lea    -0x1010101(%rdx),%eax
  40543f:	f7 d2                	not    %edx
  405441:	21 d0                	and    %edx,%eax
  405443:	25 80 80 80 80       	and    $0x80808080,%eax
  405448:	74 e9                	je     405433 <writeProfileCount.isra.27+0x33>
  40544a:	89 c2                	mov    %eax,%edx
  40544c:	48 89 e9             	mov    %rbp,%rcx
  40544f:	be 01 00 00 00       	mov    $0x1,%esi
  405454:	c1 ea 10             	shr    $0x10,%edx
  405457:	a9 80 80 00 00       	test   $0x8080,%eax
  40545c:	bf 60 e2 61 00       	mov    $0x61e260,%edi
  405461:	0f 44 c2             	cmove  %edx,%eax
  405464:	48 8d 53 02          	lea    0x2(%rbx),%rdx
  405468:	48 0f 44 da          	cmove  %rdx,%rbx
  40546c:	00 c0                	add    %al,%al
  40546e:	48 83 db 03          	sbb    $0x3,%rbx
  405472:	48 81 eb 60 e2 61 00 	sub    $0x61e260,%rbx
  405479:	48 89 da             	mov    %rbx,%rdx
  40547c:	e8 bf c3 ff ff       	callq  401840 <fwrite@plt>
  405481:	48 39 c3             	cmp    %rax,%rbx
  405484:	0f 85 70 01 00 00    	jne    4055fa <writeProfileCount.isra.27+0x1fa>
  40548a:	41 80 bd a0 04 00 00 	cmpb   $0x0,0x4a0(%r13)
  405491:	00 
  405492:	75 2c                	jne    4054c0 <writeProfileCount.isra.27+0xc0>
  405494:	48 89 e9             	mov    %rbp,%rcx
  405497:	ba 01 00 00 00       	mov    $0x1,%edx
  40549c:	be 01 00 00 00       	mov    $0x1,%esi
  4054a1:	bf 1c a1 41 00       	mov    $0x41a11c,%edi
  4054a6:	e8 95 c3 ff ff       	callq  401840 <fwrite@plt>
  4054ab:	48 83 f8 01          	cmp    $0x1,%rax
  4054af:	0f 85 5c 01 00 00    	jne    405611 <writeProfileCount.isra.27+0x211>
  4054b5:	5b                   	pop    %rbx
  4054b6:	5d                   	pop    %rbp
  4054b7:	41 5c                	pop    %r12
  4054b9:	41 5d                	pop    %r13
  4054bb:	41 5e                	pop    %r14
  4054bd:	c3                   	retq   
  4054be:	66 90                	xchg   %ax,%ax
  4054c0:	49 8b 06             	mov    (%r14),%rax
  4054c3:	4b 8d 14 a4          	lea    (%r12,%r12,4),%rdx
  4054c7:	48 89 e9             	mov    %rbp,%rcx
  4054ca:	be 01 00 00 00       	mov    $0x1,%esi
  4054cf:	bf e6 a0 41 00       	mov    $0x41a0e6,%edi
  4054d4:	4c 8d 24 d0          	lea    (%rax,%rdx,8),%r12
  4054d8:	ba 01 00 00 00       	mov    $0x1,%edx
  4054dd:	e8 5e c3 ff ff       	callq  401840 <fwrite@plt>
  4054e2:	48 83 f8 01          	cmp    $0x1,%rax
  4054e6:	0f 85 25 01 00 00    	jne    405611 <writeProfileCount.isra.27+0x211>
  4054ec:	49 8b 0c 24          	mov    (%r12),%rcx
  4054f0:	ba 57 9e 41 00       	mov    $0x419e57,%edx
  4054f5:	be 40 00 00 00       	mov    $0x40,%esi
  4054fa:	bf 60 e2 61 00       	mov    $0x61e260,%edi
  4054ff:	31 c0                	xor    %eax,%eax
  405501:	bb 60 e2 61 00       	mov    $0x61e260,%ebx
  405506:	e8 c5 c0 ff ff       	callq  4015d0 <snprintf@plt>
  40550b:	8b 13                	mov    (%rbx),%edx
  40550d:	48 83 c3 04          	add    $0x4,%rbx
  405511:	8d 82 ff fe fe fe    	lea    -0x1010101(%rdx),%eax
  405517:	f7 d2                	not    %edx
  405519:	21 d0                	and    %edx,%eax
  40551b:	25 80 80 80 80       	and    $0x80808080,%eax
  405520:	74 e9                	je     40550b <writeProfileCount.isra.27+0x10b>
  405522:	89 c2                	mov    %eax,%edx
  405524:	48 89 e9             	mov    %rbp,%rcx
  405527:	be 01 00 00 00       	mov    $0x1,%esi
  40552c:	c1 ea 10             	shr    $0x10,%edx
  40552f:	a9 80 80 00 00       	test   $0x8080,%eax
  405534:	bf 60 e2 61 00       	mov    $0x61e260,%edi
  405539:	0f 44 c2             	cmove  %edx,%eax
  40553c:	48 8d 53 02          	lea    0x2(%rbx),%rdx
  405540:	48 0f 44 da          	cmove  %rdx,%rbx
  405544:	00 c0                	add    %al,%al
  405546:	48 83 db 03          	sbb    $0x3,%rbx
  40554a:	48 81 eb 60 e2 61 00 	sub    $0x61e260,%rbx
  405551:	48 89 da             	mov    %rbx,%rdx
  405554:	e8 e7 c2 ff ff       	callq  401840 <fwrite@plt>
  405559:	48 39 c3             	cmp    %rax,%rbx
  40555c:	0f 85 98 00 00 00    	jne    4055fa <writeProfileCount.isra.27+0x1fa>
  405562:	48 89 e9             	mov    %rbp,%rcx
  405565:	ba 01 00 00 00       	mov    $0x1,%edx
  40556a:	be 01 00 00 00       	mov    $0x1,%esi
  40556f:	bf e6 a0 41 00       	mov    $0x41a0e6,%edi
  405574:	e8 c7 c2 ff ff       	callq  401840 <fwrite@plt>
  405579:	48 83 f8 01          	cmp    $0x1,%rax
  40557d:	0f 85 8e 00 00 00    	jne    405611 <writeProfileCount.isra.27+0x211>
  405583:	49 8b 4c 24 08       	mov    0x8(%r12),%rcx
  405588:	ba 57 9e 41 00       	mov    $0x419e57,%edx
  40558d:	be 40 00 00 00       	mov    $0x40,%esi
  405592:	bf 60 e2 61 00       	mov    $0x61e260,%edi
  405597:	31 c0                	xor    %eax,%eax
  405599:	bb 60 e2 61 00       	mov    $0x61e260,%ebx
  40559e:	e8 2d c0 ff ff       	callq  4015d0 <snprintf@plt>
  4055a3:	8b 13                	mov    (%rbx),%edx
  4055a5:	48 83 c3 04          	add    $0x4,%rbx
  4055a9:	8d 82 ff fe fe fe    	lea    -0x1010101(%rdx),%eax
  4055af:	f7 d2                	not    %edx
  4055b1:	21 d0                	and    %edx,%eax
  4055b3:	25 80 80 80 80       	and    $0x80808080,%eax
  4055b8:	74 e9                	je     4055a3 <writeProfileCount.isra.27+0x1a3>
  4055ba:	89 c2                	mov    %eax,%edx
  4055bc:	48 89 e9             	mov    %rbp,%rcx
  4055bf:	be 01 00 00 00       	mov    $0x1,%esi
  4055c4:	c1 ea 10             	shr    $0x10,%edx
  4055c7:	a9 80 80 00 00       	test   $0x8080,%eax
  4055cc:	bf 60 e2 61 00       	mov    $0x61e260,%edi
  4055d1:	0f 44 c2             	cmove  %edx,%eax
  4055d4:	48 8d 53 02          	lea    0x2(%rbx),%rdx
  4055d8:	48 0f 44 da          	cmove  %rdx,%rbx
  4055dc:	00 c0                	add    %al,%al
  4055de:	48 83 db 03          	sbb    $0x3,%rbx
  4055e2:	48 81 eb 60 e2 61 00 	sub    $0x61e260,%rbx
  4055e9:	48 89 da             	mov    %rbx,%rdx
  4055ec:	e8 4f c2 ff ff       	callq  401840 <fwrite@plt>
  4055f1:	48 39 c3             	cmp    %rax,%rbx
  4055f4:	0f 84 9a fe ff ff    	je     405494 <writeProfileCount.isra.27+0x94>
  4055fa:	48 89 c1             	mov    %rax,%rcx
  4055fd:	48 89 da             	mov    %rbx,%rdx
  405600:	be 01 00 00 00       	mov    $0x1,%esi
  405605:	bf b0 90 41 00       	mov    $0x4190b0,%edi
  40560a:	31 c0                	xor    %eax,%eax
  40560c:	e8 df e8 00 00       	callq  413ef0 <diee>
  405611:	48 89 c1             	mov    %rax,%rcx
  405614:	ba 01 00 00 00       	mov    $0x1,%edx
  405619:	be 01 00 00 00       	mov    $0x1,%esi
  40561e:	bf b0 90 41 00       	mov    $0x4190b0,%edi
  405623:	31 c0                	xor    %eax,%eax
  405625:	e8 c6 e8 00 00       	callq  413ef0 <diee>
  40562a:	66 0f 1f 44 00 00    	nopw   0x0(%rax,%rax,1)

0000000000405630 <enterFrameForProfiling>:
  405630:	48 8b 87 08 06 00 00 	mov    0x608(%rdi),%rax
  405637:	89 f6                	mov    %esi,%esi
  405639:	8b 14 b0             	mov    (%rax,%rsi,4),%edx
  40563c:	48 8b 87 38 06 00 00 	mov    0x638(%rdi),%rax
  405643:	4c 8b 14 d0          	mov    (%rax,%rdx,8),%r10
  405647:	45 8b 1a             	mov    (%r10),%r11d
  40564a:	45 85 db             	test   %r11d,%r11d
  40564d:	0f 84 9e 00 00 00    	je     4056f1 <enterFrameForProfiling+0xc1>
  405653:	53                   	push   %rbx
  405654:	4c 8b 8f 90 04 00 00 	mov    0x490(%rdi),%r9
  40565b:	b8 01 00 00 00       	mov    $0x1,%eax
  405660:	48 8b 9f 48 06 00 00 	mov    0x648(%rdi),%rbx
  405667:	8b bf 50 06 00 00    	mov    0x650(%rdi),%edi
  40566d:	4d 8b 41 08          	mov    0x8(%r9),%r8
  405671:	eb 2c                	jmp    40569f <enterFrameForProfiling+0x6f>
  405673:	0f 1f 44 00 00       	nopl   0x0(%rax,%rax,1)
  405678:	89 fe                	mov    %edi,%esi
  40567a:	03 34 d3             	add    (%rbx,%rdx,8),%esi
  40567d:	48 8d 14 b6          	lea    (%rsi,%rsi,4),%rdx
  405681:	49 8d 14 d0          	lea    (%r8,%rdx,8),%rdx
  405685:	48 8b 4a 20          	mov    0x20(%rdx),%rcx
  405689:	48 83 c1 01          	add    $0x1,%rcx
  40568d:	48 83 f9 01          	cmp    $0x1,%rcx
  405691:	48 89 4a 20          	mov    %rcx,0x20(%rdx)
  405695:	74 41                	je     4056d8 <enterFrameForProfiling+0xa8>
  405697:	83 c0 01             	add    $0x1,%eax
  40569a:	44 39 d8             	cmp    %r11d,%eax
  40569d:	77 51                	ja     4056f0 <enterFrameForProfiling+0xc0>
  40569f:	89 c2                	mov    %eax,%edx
  4056a1:	41 8b 14 92          	mov    (%r10,%rdx,4),%edx
  4056a5:	48 8d 0c 92          	lea    (%rdx,%rdx,4),%rcx
  4056a9:	49 8d 0c c8          	lea    (%r8,%rcx,8),%rcx
  4056ad:	48 8b 71 20          	mov    0x20(%rcx),%rsi
  4056b1:	48 83 c6 01          	add    $0x1,%rsi
  4056b5:	48 83 fe 01          	cmp    $0x1,%rsi
  4056b9:	48 89 71 20          	mov    %rsi,0x20(%rcx)
  4056bd:	75 b9                	jne    405678 <enterFrameForProfiling+0x48>
  4056bf:	49 8b 71 10          	mov    0x10(%r9),%rsi
  4056c3:	48 89 71 10          	mov    %rsi,0x10(%rcx)
  4056c7:	49 8b 71 18          	mov    0x18(%r9),%rsi
  4056cb:	48 89 71 18          	mov    %rsi,0x18(%rcx)
  4056cf:	eb a7                	jmp    405678 <enterFrameForProfiling+0x48>
  4056d1:	0f 1f 80 00 00 00 00 	nopl   0x0(%rax)
  4056d8:	49 8b 49 10          	mov    0x10(%r9),%rcx
  4056dc:	83 c0 01             	add    $0x1,%eax
  4056df:	44 39 d8             	cmp    %r11d,%eax
  4056e2:	48 89 4a 10          	mov    %rcx,0x10(%rdx)
  4056e6:	49 8b 49 18          	mov    0x18(%r9),%rcx
  4056ea:	48 89 4a 18          	mov    %rcx,0x18(%rdx)
  4056ee:	76 af                	jbe    40569f <enterFrameForProfiling+0x6f>
  4056f0:	5b                   	pop    %rbx
  4056f1:	f3 c3                	repz retq 
  4056f3:	66 66 66 66 2e 0f 1f 	data32 data32 data32 nopw %cs:0x0(%rax,%rax,1)
  4056fa:	84 00 00 00 00 00 

0000000000405700 <forwardObjptrIfInNursery>:
  405700:	41 57                	push   %r15
  405702:	41 56                	push   %r14
  405704:	41 55                	push   %r13
  405706:	41 54                	push   %r12
  405708:	49 89 f4             	mov    %rsi,%r12
  40570b:	55                   	push   %rbp
  40570c:	48 89 fd             	mov    %rdi,%rbp
  40570f:	53                   	push   %rbx
  405710:	48 83 ec 28          	sub    $0x28,%rsp
  405714:	48 8b 1e             	mov    (%rsi),%rbx
  405717:	48 39 9f 00 04 00 00 	cmp    %rbx,0x400(%rdi)
  40571e:	76 10                	jbe    405730 <forwardObjptrIfInNursery+0x30>
  405720:	48 83 c4 28          	add    $0x28,%rsp
  405724:	5b                   	pop    %rbx
  405725:	5d                   	pop    %rbp
  405726:	41 5c                	pop    %r12
  405728:	41 5d                	pop    %r13
  40572a:	41 5e                	pop    %r14
  40572c:	41 5f                	pop    %r15
  40572e:	c3                   	retq   
  40572f:	90                   	nop
  405730:	48 8b 43 f8          	mov    -0x8(%rbx),%rax
  405734:	48 83 f8 ff          	cmp    $0xffffffffffffffff,%rax
  405738:	0f 84 f2 00 00 00    	je     405830 <forwardObjptrIfInNursery+0x130>
  40573e:	25 fe ff 0f 00       	and    $0xffffe,%eax
  405743:	48 d1 e8             	shr    %rax
  405746:	48 8d 14 40          	lea    (%rax,%rax,2),%rdx
  40574a:	48 8b 87 80 04 00 00 	mov    0x480(%rdi),%rax
  405751:	48 8d 04 90          	lea    (%rax,%rdx,4),%rax
  405755:	44 8b 30             	mov    (%rax),%r14d
  405758:	0f b7 50 06          	movzwl 0x6(%rax),%edx
  40575c:	44 0f b7 78 08       	movzwl 0x8(%rax),%r15d
  405761:	44 89 f0             	mov    %r14d,%eax
  405764:	83 e0 fd             	and    $0xfffffffd,%eax
  405767:	83 f8 01             	cmp    $0x1,%eax
  40576a:	0f 84 80 00 00 00    	je     4057f0 <forwardObjptrIfInNursery+0xf0>
  405770:	45 85 f6             	test   %r14d,%r14d
  405773:	0f 85 1f 01 00 00    	jne    405898 <forwardObjptrIfInNursery+0x198>
  405779:	4a 8d 04 fa          	lea    (%rdx,%r15,8),%rax
  40577d:	ba 08 00 00 00       	mov    $0x8,%edx
  405782:	48 8d 73 e8          	lea    -0x18(%rbx),%rsi
  405786:	48 0f af 43 f0       	imul   -0x10(%rbx),%rax
  40578b:	48 83 f8 07          	cmp    $0x7,%rax
  40578f:	48 0f 46 c2          	cmovbe %rdx,%rax
  405793:	48 8b 57 28          	mov    0x28(%rdi),%rdx
  405797:	48 8b bf 98 03 00 00 	mov    0x398(%rdi),%rdi
  40579e:	4c 8d 6c 10 17       	lea    0x17(%rax,%rdx,1),%r13
  4057a3:	48 f7 da             	neg    %rdx
  4057a6:	49 21 d5             	and    %rdx,%r13
  4057a9:	4c 89 ea             	mov    %r13,%rdx
  4057ac:	e8 1f bf ff ff       	callq  4016d0 <memcpy@plt>
  4057b1:	48 8b 95 98 03 00 00 	mov    0x398(%rbp),%rdx
  4057b8:	31 c9                	xor    %ecx,%ecx
  4057ba:	b8 18 00 00 00       	mov    $0x18,%eax
  4057bf:	49 01 cd             	add    %rcx,%r13
  4057c2:	48 01 d0             	add    %rdx,%rax
  4057c5:	48 c7 43 f8 ff ff ff 	movq   $0xffffffffffffffff,-0x8(%rbx)
  4057cc:	ff 
  4057cd:	4c 01 ea             	add    %r13,%rdx
  4057d0:	48 89 03             	mov    %rax,(%rbx)
  4057d3:	48 89 95 98 03 00 00 	mov    %rdx,0x398(%rbp)
  4057da:	49 89 04 24          	mov    %rax,(%r12)
  4057de:	48 83 c4 28          	add    $0x28,%rsp
  4057e2:	5b                   	pop    %rbx
  4057e3:	5d                   	pop    %rbp
  4057e4:	41 5c                	pop    %r12
  4057e6:	41 5d                	pop    %r13
  4057e8:	41 5e                	pop    %r14
  4057ea:	41 5f                	pop    %r15
  4057ec:	c3                   	retq   
  4057ed:	0f 1f 00             	nopl   (%rax)
  4057f0:	41 0f b7 c7          	movzwl %r15w,%eax
  4057f4:	31 c9                	xor    %ecx,%ecx
  4057f6:	4c 8d 2c c2          	lea    (%rdx,%rax,8),%r13
  4057fa:	48 8b bd 98 03 00 00 	mov    0x398(%rbp),%rdi
  405801:	49 83 c5 08          	add    $0x8,%r13
  405805:	48 8d 73 f8          	lea    -0x8(%rbx),%rsi
  405809:	4c 89 ea             	mov    %r13,%rdx
  40580c:	48 89 4c 24 08       	mov    %rcx,0x8(%rsp)
  405811:	e8 ba be ff ff       	callq  4016d0 <memcpy@plt>
  405816:	41 83 fe 03          	cmp    $0x3,%r14d
  40581a:	48 8b 95 98 03 00 00 	mov    0x398(%rbp),%rdx
  405821:	48 8b 4c 24 08       	mov    0x8(%rsp),%rcx
  405826:	74 10                	je     405838 <forwardObjptrIfInNursery+0x138>
  405828:	b8 08 00 00 00       	mov    $0x8,%eax
  40582d:	eb 90                	jmp    4057bf <forwardObjptrIfInNursery+0xbf>
  40582f:	90                   	nop
  405830:	48 8b 03             	mov    (%rbx),%rax
  405833:	eb a5                	jmp    4057da <forwardObjptrIfInNursery+0xda>
  405835:	0f 1f 00             	nopl   (%rax)
  405838:	66 41 83 ff 01       	cmp    $0x1,%r15w
  40583d:	75 e9                	jne    405828 <forwardObjptrIfInNursery+0x128>
  40583f:	48 8b 75 28          	mov    0x28(%rbp),%rsi
  405843:	48 89 f0             	mov    %rsi,%rax
  405846:	48 83 c6 17          	add    $0x17,%rsi
  40584a:	48 f7 d8             	neg    %rax
  40584d:	48 21 f0             	and    %rsi,%rax
  405850:	48 8d 44 02 f0       	lea    -0x10(%rdx,%rax,1),%rax
  405855:	48 8b 70 08          	mov    0x8(%rax),%rsi
  405859:	40 f6 c6 03          	test   $0x3,%sil
  40585d:	75 c9                	jne    405828 <forwardObjptrIfInNursery+0x128>
  40585f:	80 bd 90 03 00 00 00 	cmpb   $0x0,0x390(%rbp)
  405866:	74 0f                	je     405877 <forwardObjptrIfInNursery+0x177>
  405868:	48 3b b5 00 04 00 00 	cmp    0x400(%rbp),%rsi
  40586f:	72 b7                	jb     405828 <forwardObjptrIfInNursery+0x128>
  405871:	48 3b 75 00          	cmp    0x0(%rbp),%rsi
  405875:	73 b1                	jae    405828 <forwardObjptrIfInNursery+0x128>
  405877:	48 8b b5 98 06 00 00 	mov    0x698(%rbp),%rsi
  40587e:	48 89 30             	mov    %rsi,(%rax)
  405881:	48 89 85 98 06 00 00 	mov    %rax,0x698(%rbp)
  405888:	b8 08 00 00 00       	mov    $0x8,%eax
  40588d:	e9 2d ff ff ff       	jmpq   4057bf <forwardObjptrIfInNursery+0xbf>
  405892:	66 0f 1f 44 00 00    	nopw   0x0(%rax,%rax,1)
  405898:	48 8b 47 28          	mov    0x28(%rdi),%rax
  40589c:	48 8b 73 18          	mov    0x18(%rbx),%rsi
  4058a0:	49 89 c0             	mov    %rax,%r8
  4058a3:	49 f7 d8             	neg    %r8
  4058a6:	48 85 f6             	test   %rsi,%rsi
  4058a9:	0f 88 22 02 00 00    	js     405ad1 <forwardObjptrIfInNursery+0x3d1>
  4058af:	f2 48 0f 2a c6       	cvtsi2sd %rsi,%xmm0
  4058b4:	48 8b 4b 10          	mov    0x10(%rbx),%rcx
  4058b8:	48 85 c9             	test   %rcx,%rcx
  4058bb:	0f 88 f3 01 00 00    	js     405ab4 <forwardObjptrIfInNursery+0x3b4>
  4058c1:	f2 48 0f 2a d1       	cvtsi2sd %rcx,%xmm2
  4058c6:	48 8d 78 1f          	lea    0x1f(%rax),%rdi
  4058ca:	48 8b 95 88 03 00 00 	mov    0x388(%rbp),%rdx
  4058d1:	4c 21 c7             	and    %r8,%rdi
  4058d4:	48 3b 5c 17 f0       	cmp    -0x10(%rdi,%rdx,1),%rbx
  4058d9:	0f 85 61 01 00 00    	jne    405a40 <forwardObjptrIfInNursery+0x340>
  4058df:	f3 0f 10 8d b0 00 00 	movss  0xb0(%rbp),%xmm1
  4058e6:	00 
  4058e7:	f2 0f 10 1d d1 47 01 	movsd  0x147d1(%rip),%xmm3        # 41a0c0 <_IO_stdin_used+0x1ca0>
  4058ee:	00 
  4058ef:	49 b9 ff ff ff ff ff 	movabs $0x3fffffffffffffff,%r9
  4058f6:	ff ff 3f 
  4058f9:	0f 5a c9             	cvtps2pd %xmm1,%xmm1
  4058fc:	f2 0f 59 c8          	mulsd  %xmm0,%xmm1
  405900:	66 0f 2e cb          	ucomisd %xmm3,%xmm1
  405904:	77 17                	ja     40591d <forwardObjptrIfInNursery+0x21d>
  405906:	f2 0f 10 25 62 47 01 	movsd  0x14762(%rip),%xmm4        # 41a070 <_IO_stdin_used+0x1c50>
  40590d:	00 
  40590e:	66 0f 2e cc          	ucomisd %xmm4,%xmm1
  405912:	0f 83 55 02 00 00    	jae    405b6d <forwardObjptrIfInNursery+0x46d>
  405918:	f2 4c 0f 2c c9       	cvttsd2si %xmm1,%r9
  40591d:	f3 0f 10 8d b4 00 00 	movss  0xb4(%rbp),%xmm1
  405924:	00 
  405925:	48 b8 ff ff ff ff ff 	movabs $0x3fffffffffffffff,%rax
  40592c:	ff ff 3f 
  40592f:	0f 5a c9             	cvtps2pd %xmm1,%xmm1
  405932:	f2 0f 59 c8          	mulsd  %xmm0,%xmm1
  405936:	66 0f 2e cb          	ucomisd %xmm3,%xmm1
  40593a:	77 17                	ja     405953 <forwardObjptrIfInNursery+0x253>
  40593c:	f2 0f 10 05 2c 47 01 	movsd  0x1472c(%rip),%xmm0        # 41a070 <_IO_stdin_used+0x1c50>
  405943:	00 
  405944:	66 0f 2e c8          	ucomisd %xmm0,%xmm1
  405948:	0f 83 3a 02 00 00    	jae    405b88 <forwardObjptrIfInNursery+0x488>
  40594e:	f2 48 0f 2c c1       	cvttsd2si %xmm1,%rax
  405953:	48 39 c1             	cmp    %rax,%rcx
  405956:	48 89 ca             	mov    %rcx,%rdx
  405959:	76 26                	jbe    405981 <forwardObjptrIfInNursery+0x281>
  40595b:	f3 0f 10 85 b8 00 00 	movss  0xb8(%rbp),%xmm0
  405962:	00 
  405963:	f2 0f 10 0d 05 47 01 	movsd  0x14705(%rip),%xmm1        # 41a070 <_IO_stdin_used+0x1c50>
  40596a:	00 
  40596b:	0f 5a c0             	cvtps2pd %xmm0,%xmm0
  40596e:	f2 0f 59 c2          	mulsd  %xmm2,%xmm0
  405972:	66 0f 2e c1          	ucomisd %xmm1,%xmm0
  405976:	0f 83 72 01 00 00    	jae    405aee <forwardObjptrIfInNursery+0x3ee>
  40597c:	f2 48 0f 2c d0       	cvttsd2si %xmm0,%rdx
  405981:	8b 85 6c 04 00 00    	mov    0x46c(%rbp),%eax
  405987:	48 8b 7c 33 18       	mov    0x18(%rbx,%rsi,1),%rdi
  40598c:	4c 89 4c 24 18       	mov    %r9,0x18(%rsp)
  405991:	48 89 54 24 10       	mov    %rdx,0x10(%rsp)
  405996:	48 89 74 24 08       	mov    %rsi,0x8(%rsp)
  40599b:	44 8d 2c 00          	lea    (%rax,%rax,1),%r13d
  40599f:	ff 95 a8 04 00 00    	callq  *0x4a8(%rbp)
  4059a5:	48 8b 95 b0 03 00 00 	mov    0x3b0(%rbp),%rdx
  4059ac:	89 c0                	mov    %eax,%eax
  4059ae:	4c 8b 55 28          	mov    0x28(%rbp),%r10
  4059b2:	48 8d 04 40          	lea    (%rax,%rax,2),%rax
  4059b6:	48 8b 74 24 08       	mov    0x8(%rsp),%rsi
  4059bb:	48 8b 7b 18          	mov    0x18(%rbx),%rdi
  4059bf:	48 8b 4b 10          	mov    0x10(%rbx),%rcx
  4059c3:	4c 8b 4c 24 18       	mov    0x18(%rsp),%r9
  4059c8:	48 8d 04 c2          	lea    (%rdx,%rax,8),%rax
  4059cc:	4d 89 d0             	mov    %r10,%r8
  4059cf:	48 8b 54 24 10       	mov    0x10(%rsp),%rdx
  4059d4:	4a 8d 74 16 27       	lea    0x27(%rsi,%r10,1),%rsi
  4059d9:	49 f7 d8             	neg    %r8
  4059dc:	0f b7 40 10          	movzwl 0x10(%rax),%eax
  4059e0:	48 29 c6             	sub    %rax,%rsi
  4059e3:	4c 89 d0             	mov    %r10,%rax
  4059e6:	4c 01 ee             	add    %r13,%rsi
  4059e9:	4c 21 c6             	and    %r8,%rsi
  4059ec:	48 83 ee 28          	sub    $0x28,%rsi
  4059f0:	49 39 d1             	cmp    %rdx,%r9
  4059f3:	49 0f 46 d1          	cmovbe %r9,%rdx
  4059f7:	48 39 f2             	cmp    %rsi,%rdx
  4059fa:	48 0f 42 d6          	cmovb  %rsi,%rdx
  4059fe:	48 8d 44 10 27       	lea    0x27(%rax,%rdx,1),%rax
  405a03:	4c 21 c0             	and    %r8,%rax
  405a06:	48 83 e8 28          	sub    $0x28,%rax
  405a0a:	48 39 c8             	cmp    %rcx,%rax
  405a0d:	48 0f 47 c1          	cmova  %rcx,%rax
  405a11:	48 39 c8             	cmp    %rcx,%rax
  405a14:	49 89 c5             	mov    %rax,%r13
  405a17:	73 11                	jae    405a2a <forwardObjptrIfInNursery+0x32a>
  405a19:	80 7d 7b 00          	cmpb   $0x0,0x7b(%rbp)
  405a1d:	0f 85 e6 00 00 00    	jne    405b09 <forwardObjptrIfInNursery+0x409>
  405a23:	4c 89 6b 10          	mov    %r13,0x10(%rbx)
  405a27:	4c 89 e9             	mov    %r13,%rcx
  405a2a:	4c 8d 6f 20          	lea    0x20(%rdi),%r13
  405a2e:	48 29 f9             	sub    %rdi,%rcx
